(lp0
(I83
I0
I0
(lp1
S'red'
p2
aS'brown'
p3
atp4
a(I28
I0
I0
(lp5
S'black'
p6
atp7
a(I130
I0
I0
(lp8
g2
atp9
a(I161
I0
I0
(lp10
g2
atp11
a(I194
I0
I0
(lp12
g2
atp13
a(I213
I0
I0
(lp14
g2
atp15
a(I233
I0
I0
(lp16
g2
atp17
a(I105
I19
I0
(lp18
g3
atp19
a(I119
I19
I0
(lp20
g2
ag3
atp21
a(I144
I19
I0
(lp22
g2
ag3
atp23
a(I169
I19
I0
(lp24
g2
aS'orange'
p25
atp26
a(I194
I19
I0
(lp27
g2
atp28
a(I216
I19
I0
(lp29
g2
atp30
a(I247
I19
I0
(lp31
g2
atp32
a(I30
I0
I33
(lp33
g6
atp34
a(I55
I0
I58
(lp35
S'violet'
p36
atp37
a(I67
I0
I33
(lp38
g36
atp39
a(I86
I0
I25
(lp40
g2
ag36
atp41
a(I86
I0
I44
(lp42
g36
atp43
a(I86
I0
I67
(lp44
g36
atp45
a(I47
I0
I42
(lp46
g6
atp47
a(I47
I0
I61
(lp48
S'blue'
p49
ag36
atp50
a(I47
I0
I83
(lp51
g49
ag36
atp52
a(I47
I0
I122
(lp53
g49
atp54
a(I69
I0
I122
(lp55
g49
ag36
atp56
a(I103
I0
I122
(lp57
g36
atp58
a(I125
I0
I122
(lp59
g36
atp60
a.