(lp0
(I90
I146
I144
(lp1
S'blue'
p2
atp3
a(I218
I217
I12
(lp4
S'yellow'
p5
atp6
a(I112
I140
I175
(lp7
g2
atp8
a(I110
I36
I22
(lp9
S'brown'
p10
atp11
a(I164
I94
I69
(lp12
g10
atp13
a(I149
I244
I187
(lp14
S'cyan'
p15
atp16
a(I125
I236
I229
(lp17
g15
atp18
a(I230
I163
I95
(lp19
S'tan'
p20
atp21
a(I130
I134
I27
(lp22
S'green'
p23
atp24
a(I175
I79
I211
(lp25
S'violet'
p26
atp27
a(I103
I228
I18
(lp28
g23
atp29
a(I110
I230
I27
(lp30
g23
atp31
a(I196
I205
I133
(lp32
S'gray'
p33
atp34
a(I135
I13
I18
(lp35
S'red'
p36
atp37
a(I224
I124
I226
(lp38
S'pink'
p39
atp40
a(I130
I5
I253
(lp41
g26
atp42
a(I71
I181
I33
(lp43
g23
atp44
a(I152
I248
I125
(lp45
g23
atp46
a(I134
I23
I72
(lp47
g36
ag26
atp48
a(I15
I230
I91
(lp49
g23
atp50
a(I159
I76
I12
(lp51
g10
atp52
a(I79
I96
I17
(lp53
g23
atp54
a(I243
I237
I216
(lp55
S'white'
p56
atp57
a(I189
I5
I112
(lp58
g39
atp59
a(I16
I248
I160
(lp60
g15
atp61
a(I123
I233
I49
(lp62
g23
atp63
a(I203
I235
I118
(lp64
g23
atp65
a(I144
I180
I153
(lp66
g33
atp67
a(I119
I115
I204
(lp68
g2
ag26
atp69
a(I212
I72
I11
(lp70
S'orange'
p71
atp72
a(I67
I198
I197
(lp73
g2
atp74
a(I167
I202
I158
(lp75
g33
atp76
a(I15
I242
I235
(lp77
g15
atp78
a(I102
I35
I13
(lp79
g10
atp80
a(I126
I31
I149
(lp81
g26
atp82
a(I222
I86
I38
(lp83
g71
atp84
a(I255
I90
I17
(lp85
g71
atp86
a(I154
I185
I127
(lp87
g33
atp88
a(I139
I39
I16
(lp89
g10
atp90
a(I166
I167
I91
(lp91
g33
atp92
a(I94
I82
I221
(lp93
g2
atp94
a(I187
I122
I141
(lp95
g26
atp96
a(I98
I66
I84
(lp97
g26
atp98
a(I195
I82
I83
(lp99
g36
ag71
atp100
a(I40
I37
I149
(lp101
g2
atp102
a(I252
I197
I187
(lp103
g39
atp104
a(I204
I89
I22
(lp105
g71
ag10
atp106
a(I142
I75
I222
(lp107
g2
ag26
atp108
a(I6
I86
I239
(lp109
g2
atp110
a(I153
I35
I239
(lp111
g26
atp112
a(I47
I168
I22
(lp113
g23
atp114
a(I9
I161
I109
(lp115
g15
atp116
a(I224
I116
I178
(lp117
g39
atp118
a(I143
I123
I251
(lp119
g2
ag33
atp120
a(I59
I174
I194
(lp121
g15
atp122
a(I175
I41
I23
(lp123
g36
ag10
atp124
a(I135
I24
I9
(lp125
g36
ag10
atp126
a(I37
I65
I247
(lp127
g2
atp128
a(I240
I44
I107
(lp129
g39
atp130
a(I193
I186
I28
(lp131
g5
ag23
atp132
a(I36
I78
I242
(lp133
g2
atp134
a(I170
I13
I5
(lp135
g36
atp136
a(I8
I104
I15
(lp137
g23
atp138
a(I240
I245
I41
(lp139
g5
atp140
a(I174
I179
I142
(lp141
g33
atp142
a(I12
I108
I58
(lp143
g23
atp144
a(I14
I210
I4
(lp145
g23
atp146
a(I99
I91
I240
(lp147
g2
atp148
a(I135
I61
I133
(lp149
g26
atp150
a(I203
I151
I232
(lp151
g26
atp152
a(I30
I138
I200
(lp153
g2
atp154
a(I138
I231
I24
(lp155
g23
atp156
a(I253
I193
I250
(lp157
g39
atp158
a(I19
I213
I147
(lp159
g15
atp160
a(I29
I54
I103
(lp161
g2
atp162
a(I63
I142
I244
(lp163
g2
atp164
a(I241
I28
I232
(lp165
g39
atp166
a(I218
I127
I195
(lp167
g39
atp168
a(I37
I134
I11
(lp169
g23
atp170
a(I193
I160
I141
(lp171
g33
atp172
a(I10
I210
I216
(lp173
g15
atp174
a(I51
I224
I155
(lp175
g15
atp176
a(I136
I85
I128
(lp177
g26
atp178
a(I161
I64
I33
(lp179
g10
atp180
a(I208
I17
I40
(lp181
g36
atp182
a(I31
I7
I154
(lp183
g2
atp184
a(I226
I199
I206
(lp185
g39
ag33
atp186
a(I28
I188
I119
(lp187
g15
atp188
a(I135
I81
I175
(lp189
g26
atp190
a(I41
I175
I108
(lp191
g23
atp192
a(I193
I151
I236
(lp193
g26
ag33
atp194
a(I233
I141
I34
(lp195
g71
atp196
a(I134
I73
I167
(lp197
g26
atp198
a(I87
I204
I32
(lp199
g23
atp200
a(I225
I53
I62
(lp201
g36
atp202
a(I9
I94
I183
(lp203
g2
atp204
a(I210
I248
I202
(lp205
g15
atp206
a(I172
I75
I234
(lp207
g26
atp208
a(I149
I209
I117
(lp209
g23
atp210
a(I50
I118
I176
(lp211
g2
atp212
a(I93
I251
I99
(lp213
g23
atp214
a(I248
I151
I199
(lp215
g39
atp216
a(I111
I102
I203
(lp217
g2
ag26
atp218
a(I89
I47
I223
(lp219
g2
ag26
atp220
a(I114
I227
I9
(lp221
g23
atp222
a(I161
I231
I232
(lp223
g15
atp224
a(I185
I221
I21
(lp225
g5
ag23
atp226
a(I27
I163
I71
(lp227
g23
atp228
a(I114
I14
I121
(lp229
g26
atp230
a(I65
I125
I78
(lp231
g23
atp232
a(I70
I111
I233
(lp233
g2
atp234
a(I198
I22
I227
(lp235
g26
ag39
atp236
a(I154
I87
I208
(lp237
g26
atp238
a(I20
I22
I146
(lp239
g2
atp240
a(I196
I251
I231
(lp241
g15
atp242
a.