(lp0
(I238
I117
I245
(lp1
S'pink'
p2
atp3
a(I15
I123
I120
(lp4
S'blue'
p5
aS'cyan'
p6
atp7
a(I15
I14
I110
(lp8
g5
atp9
a(I237
I63
I60
(lp10
S'red'
p11
atp12
a(I83
I209
I211
(lp13
g6
atp14
a(I25
I71
I86
(lp15
g5
atp16
a(I126
I181
I91
(lp17
S'green'
p18
atp19
a(I141
I233
I169
(lp20
g6
atp21
a(I242
I226
I33
(lp22
S'yellow'
p23
atp24
a(I238
I193
I179
(lp25
g2
atp26
a(I6
I183
I186
(lp27
g5
ag6
atp28
a(I86
I76
I72
(lp29
S'gray'
p30
atp31
a(I48
I231
I57
(lp32
g18
atp33
a(I182
I186
I236
(lp34
g30
atp35
a(I28
I203
I160
(lp36
g6
atp37
a(I228
I13
I208
(lp38
g2
atp39
a(I145
I23
I243
(lp40
S'violet'
p41
atp42
a(I87
I110
I80
(lp43
g30
atp44
a(I209
I91
I207
(lp45
g2
atp46
a(I89
I107
I242
(lp47
g5
atp48
a(I132
I237
I92
(lp49
g18
atp50
a(I194
I6
I10
(lp51
g11
atp52
a(I43
I126
I216
(lp53
g5
atp54
a(I144
I51
I43
(lp55
g11
aS'brown'
p56
atp57
a(I157
I93
I27
(lp58
g56
atp59
a(I23
I99
I15
(lp60
g18
atp61
a(I105
I161
I70
(lp62
g18
atp63
a(I226
I176
I113
(lp64
S'tan'
p65
atp66
a(I108
I134
I235
(lp67
g5
atp68
a(I33
I214
I126
(lp69
g18
ag6
atp70
a(I37
I22
I189
(lp71
g5
atp72
a(I200
I31
I193
(lp73
g41
atp74
a(I151
I107
I120
(lp75
g41
ag30
atp76
a(I146
I187
I111
(lp77
g18
atp78
a(I195
I214
I94
(lp79
g23
ag18
atp80
a(I163
I10
I250
(lp81
g41
atp82
a(I110
I160
I127
(lp83
g5
ag30
atp84
a(I60
I41
I88
(lp85
g5
ag41
atp86
a(I1
I142
I125
(lp87
g6
atp88
a(I235
I161
I6
(lp89
S'orange'
p90
ag23
atp91
a(I226
I141
I38
(lp92
g90
atp93
a(I106
I169
I91
(lp94
g18
atp95
a(I137
I71
I90
(lp96
g41
atp97
a(I224
I78
I238
(lp98
g2
atp99
a(I232
I79
I22
(lp100
g90
atp101
a(I139
I48
I102
(lp102
g41
atp103
a(I212
I205
I156
(lp104
g30
atp105
a(I11
I189
I214
(lp106
g6
atp107
a(I54
I63
I155
(lp108
g5
atp109
a(I55
I0
I169
(lp110
g5
atp111
a(I204
I41
I86
(lp112
g2
atp113
a(I177
I124
I27
(lp114
g56
atp115
a(I4
I73
I243
(lp116
g5
atp117
a(I60
I99
I163
(lp118
g5
atp119
a(I85
I47
I199
(lp120
g5
ag41
atp121
a(I93
I201
I229
(lp122
g6
atp123
a(I225
I172
I91
(lp124
g65
atp125
a(I14
I178
I108
(lp126
g18
atp127
a(I147
I201
I75
(lp128
g18
atp129
a(I72
I63
I141
(lp130
g5
atp131
a(I201
I63
I202
(lp132
g41
ag2
atp133
a(I246
I34
I141
(lp134
g2
atp135
a(I75
I252
I238
(lp136
g6
atp137
a(I188
I238
I74
(lp138
g18
atp139
a(I40
I99
I244
(lp140
g5
atp141
a(I73
I187
I50
(lp142
g18
atp143
a(I4
I14
I151
(lp144
g5
atp145
a(I49
I205
I198
(lp146
g6
atp147
a(I2
I116
I245
(lp148
g5
atp149
a(I22
I76
I110
(lp150
g5
atp151
a(I139
I163
I31
(lp152
g18
atp153
a(I89
I31
I54
(lp154
g41
atp155
a(I218
I247
I171
(lp156
S'white'
p157
atp158
a(I71
I214
I219
(lp159
g6
atp160
a(I211
I223
I42
(lp161
g23
atp162
a(I106
I18
I246
(lp163
g5
ag41
atp164
a(I200
I106
I50
(lp165
g90
ag56
atp166
a(I224
I175
I230
(lp167
g2
ag30
atp168
a(I53
I18
I58
(lp169
g41
atp170
a(I39
I241
I12
(lp171
g18
atp172
a.