(lp0
(I90
I146
I144
(lp1
S'blue'
p2
atp3
a(I218
I217
I12
(lp4
S'yellow'
p5
atp6
a(I112
I140
I175
(lp7
g2
atp8
a(I110
I36
I22
(lp9
S'brown'
p10
atp11
a(I164
I94
I69
(lp12
g10
atp13
a(I149
I244
I187
(lp14
S'cyan'
p15
atp16
a(I125
I236
I229
(lp17
g15
atp18
a(I230
I163
I95
(lp19
tp20
a(I130
I134
I27
(lp21
S'green'
p22
atp23
a(I175
I79
I211
(lp24
S'violet'
p25
atp26
a(I103
I228
I18
(lp27
g22
atp28
a(I110
I230
I27
(lp29
g22
atp30
a(I196
I205
I133
(lp31
S'gray'
p32
atp33
a(I135
I13
I18
(lp34
S'red'
p35
atp36
a(I224
I124
I226
(lp37
S'pink'
p38
atp39
a(I130
I5
I253
(lp40
g25
atp41
a(I71
I181
I33
(lp42
g22
atp43
a(I152
I248
I125
(lp44
g22
atp45
a(I134
I23
I72
(lp46
g35
ag25
atp47
a(I15
I230
I91
(lp48
g22
atp49
a(I159
I76
I12
(lp50
g10
atp51
a(I79
I96
I17
(lp52
g22
atp53
a(I243
I237
I216
(lp54
S'white'
p55
atp56
a(I189
I5
I112
(lp57
g38
atp58
a(I16
I248
I160
(lp59
g15
atp60
a(I123
I233
I49
(lp61
g22
atp62
a(I203
I235
I118
(lp63
g22
atp64
a(I144
I180
I153
(lp65
g32
atp66
a(I119
I115
I204
(lp67
g2
ag25
atp68
a(I212
I72
I11
(lp69
S'orange'
p70
atp71
a(I67
I198
I197
(lp72
g2
atp73
a(I167
I202
I158
(lp74
g32
atp75
a(I15
I242
I235
(lp76
g15
atp77
a(I102
I35
I13
(lp78
g10
atp79
a(I126
I31
I149
(lp80
g25
atp81
a(I222
I86
I38
(lp82
g70
atp83
a(I255
I90
I17
(lp84
g70
atp85
a(I154
I185
I127
(lp86
g32
atp87
a(I139
I39
I16
(lp88
g10
atp89
a(I166
I167
I91
(lp90
g32
atp91
a(I94
I82
I221
(lp92
g2
atp93
a(I187
I122
I141
(lp94
g25
atp95
a(I98
I66
I84
(lp96
g25
atp97
a(I195
I82
I83
(lp98
g35
ag70
atp99
a(I40
I37
I149
(lp100
g2
atp101
a(I252
I197
I187
(lp102
g38
atp103
a(I204
I89
I22
(lp104
g70
ag10
atp105
a(I142
I75
I222
(lp106
g2
ag25
atp107
a(I6
I86
I239
(lp108
g2
atp109
a(I153
I35
I239
(lp110
g25
atp111
a(I47
I168
I22
(lp112
g22
atp113
a(I9
I161
I109
(lp114
g15
atp115
a(I224
I116
I178
(lp116
g38
atp117
a(I143
I123
I251
(lp118
g2
ag32
atp119
a(I59
I174
I194
(lp120
g15
atp121
a(I175
I41
I23
(lp122
g35
ag10
atp123
a(I135
I24
I9
(lp124
g35
ag10
atp125
a(I37
I65
I247
(lp126
g2
atp127
a(I240
I44
I107
(lp128
g38
atp129
a(I193
I186
I28
(lp130
g5
ag22
atp131
a(I36
I78
I242
(lp132
g2
atp133
a(I170
I13
I5
(lp134
g35
atp135
a(I8
I104
I15
(lp136
g22
atp137
a(I240
I245
I41
(lp138
g5
atp139
a(I174
I179
I142
(lp140
g32
atp141
a(I12
I108
I58
(lp142
g22
atp143
a(I14
I210
I4
(lp144
g22
atp145
a(I99
I91
I240
(lp146
g2
atp147
a(I135
I61
I133
(lp148
g25
atp149
a(I203
I151
I232
(lp150
g25
atp151
a(I30
I138
I200
(lp152
g2
atp153
a(I138
I231
I24
(lp154
g22
atp155
a(I253
I193
I250
(lp156
g38
atp157
a(I19
I213
I147
(lp158
g15
atp159
a(I29
I54
I103
(lp160
g2
atp161
a(I63
I142
I244
(lp162
g2
atp163
a(I241
I28
I232
(lp164
g38
atp165
a(I218
I127
I195
(lp166
g38
atp167
a(I37
I134
I11
(lp168
g22
atp169
a(I193
I160
I141
(lp170
g32
atp171
a(I10
I210
I216
(lp172
g15
atp173
a(I51
I224
I155
(lp174
g15
atp175
a(I136
I85
I128
(lp176
g25
atp177
a(I161
I64
I33
(lp178
g10
atp179
a(I208
I17
I40
(lp180
g35
atp181
a(I31
I7
I154
(lp182
g2
atp183
a(I226
I199
I206
(lp184
g38
ag32
atp185
a(I28
I188
I119
(lp186
g15
atp187
a(I135
I81
I175
(lp188
g25
atp189
a(I41
I175
I108
(lp190
g22
atp191
a(I193
I151
I236
(lp192
g25
ag32
atp193
a(I233
I141
I34
(lp194
g70
atp195
a(I134
I73
I167
(lp196
g25
atp197
a(I87
I204
I32
(lp198
g22
atp199
a(I225
I53
I62
(lp200
g35
atp201
a(I9
I94
I183
(lp202
g2
atp203
a(I210
I248
I202
(lp204
g15
atp205
a(I172
I75
I234
(lp206
g25
atp207
a(I149
I209
I117
(lp208
g22
atp209
a(I50
I118
I176
(lp210
g2
atp211
a(I93
I251
I99
(lp212
g22
atp213
a(I248
I151
I199
(lp214
g38
atp215
a(I111
I102
I203
(lp216
g2
ag25
atp217
a(I89
I47
I223
(lp218
g2
ag25
atp219
a(I114
I227
I9
(lp220
g22
atp221
a(I161
I231
I232
(lp222
g15
atp223
a(I185
I221
I21
(lp224
g5
ag22
atp225
a(I27
I163
I71
(lp226
g22
atp227
a(I114
I14
I121
(lp228
g25
atp229
a(I65
I125
I78
(lp230
g22
atp231
a(I70
I111
I233
(lp232
g2
atp233
a(I198
I22
I227
(lp234
g25
ag38
atp235
a(I154
I87
I208
(lp236
g25
atp237
a(I20
I22
I146
(lp238
g2
atp239
a(I196
I251
I231
(lp240
g15
atp241
a.