(lp0
(I165
I53
I209
(lp1
S'violet'
p2
atp3
a(I243
I32
I100
(lp4
S'red'
p5
aS'pink'
p6
atp7
a(I158
I187
I212
(lp8
S'blue'
p9
aS'gray'
p10
atp11
a(I109
I75
I131
(lp12
g9
ag2
atp13
a(I124
I82
I56
(lp14
S'brown'
p15
atp16
a(I127
I117
I136
(lp17
g10
atp18
a(I46
I131
I102
(lp19
S'cyan'
p20
atp21
a(I210
I54
I157
(lp22
g6
atp23
a(I142
I158
I37
(lp24
S'green'
p25
atp26
a(I84
I205
I159
(lp27
g20
atp28
a(I73
I84
I225
(lp29
g9
atp30
a(I209
I152
I174
(lp31
g6
ag10
atp32
a(I171
I5
I144
(lp33
g2
ag6
atp34
a(I64
I247
I143
(lp35
g20
atp36
a(I13
I146
I101
(lp37
g25
ag20
atp38
a(I104
I178
I48
(lp39
g25
atp40
a(I175
I245
I0
(lp41
S'yellow'
p42
ag25
atp43
a(I244
I196
I24
(lp44
g42
atp45
a(I43
I5
I253
(lp46
g9
atp47
a(I92
I222
I43
(lp48
g25
atp49
a(I193
I184
I121
(lp50
g10
atp51
a(I112
I202
I185
(lp52
g9
atp53
a(I214
I78
I124
(lp54
g6
atp55
a(I174
I140
I75
(lp56
g15
atp57
a(I177
I129
I36
(lp58
g15
atp59
a(I54
I205
I2
(lp60
g25
atp61
a(I189
I168
I242
(lp62
g10
atp63
a(I8
I101
I232
(lp64
g9
atp65
a(I170
I17
I5
(lp66
g5
atp67
a(I191
I59
I1
(lp68
S'orange'
p69
ag15
atp70
a(I1
I120
I132
(lp71
g9
atp72
a(I141
I242
I17
(lp73
g25
atp74
a(I122
I33
I180
(lp75
g2
atp76
a(I123
I6
I138
(lp77
g2
atp78
a(I255
I206
I212
(lp79
g6
atp80
a(I166
I170
I130
(lp81
g10
atp82
a(I52
I229
I119
(lp83
g20
atp84
a(I66
I236
I115
(lp85
g20
atp86
a(I210
I205
I250
(lp87
g10
atp88
a(I110
I3
I140
(lp89
g2
atp90
a(I115
I60
I150
(lp91
g2
atp92
a(I54
I205
I163
(lp93
g20
atp94
a(I50
I164
I59
(lp95
g25
atp96
a(I166
I19
I155
(lp97
g2
atp98
a(I177
I65
I42
(lp99
g5
ag15
atp100
a(I88
I235
I18
(lp101
g25
atp102
a(I121
I111
I154
(lp103
g9
ag10
atp104
a(I146
I82
I241
(lp105
g9
ag2
atp106
a(I196
I11
I104
(lp107
g5
ag6
atp108
a(I47
I237
I176
(lp109
g20
atp110
a(I89
I208
I89
(lp111
g25
atp112
a(I24
I108
I126
(lp113
g9
atp114
a(I193
I238
I177
(lp115
g20
atp116
a(I185
I218
I52
(lp117
g25
atp118
a(I139
I44
I239
(lp119
g2
atp120
a(I228
I161
I159
(lp121
g6
atp122
a(I57
I144
I159
(lp123
g9
atp124
a(I28
I54
I236
(lp125
g9
atp126
a(I181
I253
I240
(lp127
g20
atp128
a(I161
I197
I206
(lp129
g9
atp130
a(I54
I242
I191
(lp131
g20
atp132
a(I103
I117
I237
(lp133
g9
atp134
a(I155
I251
I234
(lp135
g20
atp136
a(I202
I219
I204
(lp137
g10
atp138
a(I250
I149
I87
(lp139
g69
atp140
a(I253
I135
I218
(lp141
g6
atp142
a(I62
I99
I221
(lp143
g9
atp144
a(I38
I52
I10
(lp145
g25
aS'black'
p146
atp147
a(I27
I78
I110
(lp148
g9
atp149
a(I5
I185
I139
(lp150
g20
atp151
a(I136
I26
I121
(lp152
g2
atp153
a(I220
I180
I122
(lp154
S'tan'
p155
atp156
a(I208
I48
I12
(lp157
g5
ag69
atp158
a(I125
I128
I204
(lp159
g9
ag2
atp160
a(I93
I6
I139
(lp161
g2
atp162
a(I135
I139
I152
(lp163
g10
atp164
a(I191
I180
I143
(lp165
g10
atp166
a(I243
I158
I46
(lp167
g69
atp168
a(I27
I50
I100
(lp169
g9
atp170
a(I173
I6
I48
(lp171
g5
ag2
atp172
a(I153
I108
I194
(lp173
g9
ag2
atp174
a(I24
I198
I44
(lp175
g25
atp176
a(I29
I64
I209
(lp177
g9
atp178
a(I249
I51
I151
(lp179
g6
atp180
a(I241
I21
I106
(lp181
g5
ag6
atp182
a(I22
I32
I233
(lp183
g9
atp184
a(I218
I22
I39
(lp185
g5
atp186
a(I139
I41
I195
(lp187
g2
atp188
a(I130
I103
I15
(lp189
g25
ag15
atp190
a(I7
I15
I91
(lp191
g9
atp192
a(I43
I116
I234
(lp193
g9
atp194
a(I11
I218
I216
(lp195
g20
atp196
a(I122
I150
I201
(lp197
g9
ag10
atp198
a.