(lp0
(I238
I254
I94
(lp1
S'yellow'
p2
atp3
a(I238
I254
I119
(lp4
g2
atp5
a(I238
I254
I141
(lp6
g2
atp7
a(I238
I254
I166
(lp8
S'white'
p9
atp10
a(I238
I254
I183
(lp11
g9
atp12
a(I238
I254
I213
(lp13
g9
atp14
a(I238
I254
I233
(lp15
g9
atp16
a(I238
I254
I42
(lp17
g2
atp18
a(I238
I254
I67
(lp19
g2
atp20
a(I238
I254
I86
(lp21
g2
atp22
a(I255
I254
I86
(lp23
g2
atp24
a(I255
I254
I55
(lp25
g2
atp26
a(I255
I254
I125
(lp27
S'tan'
p28
atp29
a(I236
I222
I108
(lp30
g28
atp31
a(I236
I222
I139
(lp32
g28
atp33
a(I236
I222
I42
(lp34
g2
atp35
a(I236
I222
I139
(lp36
g28
atp37
a(I236
I222
I158
(lp38
g28
atp39
a(I236
I222
I183
(lp40
S'gray'
p41
atp42
a(I236
I222
I205
(lp43
g41
atp44
a(I219
I222
I205
(lp45
g41
atp46
a(I219
I222
I14
(lp47
g2
atp48
a(I219
I222
I50
(lp49
g2
atp50
a.