(lp0
(I139
I123
I209
(lp1
S'blue'
p2
aS'gray'
p3
atp4
a(I19
I222
I117
(lp5
S'green'
p6
atp7
a(I89
I187
I218
(lp8
S'cyan'
p9
atp10
a(I59
I211
I17
(lp11
g6
atp12
a(I106
I241
I73
(lp13
g6
atp14
a(I56
I249
I104
(lp15
g6
atp16
a(I224
I73
I127
(lp17
S'pink'
p18
atp19
a(I72
I111
I16
(lp20
g6
atp21
a(I17
I219
I50
(lp22
g6
atp23
a(I122
I227
I243
(lp24
g9
atp25
a(I51
I183
I136
(lp26
g9
atp27
a(I114
I255
I3
(lp28
g6
atp29
a(I39
I86
I101
(lp30
g2
atp31
a(I12
I190
I238
(lp32
g2
atp33
a(I65
I52
I114
(lp34
g2
aS'violet'
p35
atp36
a(I78
I75
I97
(lp37
g3
atp38
a(I171
I115
I175
(lp39
g35
atp40
a(I20
I145
I164
(lp41
g2
atp42
a(I106
I72
I123
(lp43
g35
atp44
a(I199
I149
I242
(lp45
g35
atp46
a(I137
I12
I4
(lp47
S'red'
p48
atp49
a(I196
I62
I193
(lp50
g18
atp51
a(I222
I181
I236
(lp52
g18
ag3
atp53
a(I69
I138
I62
(lp54
g6
atp55
a(I249
I193
I131
(lp56
tp57
a(I194
I27
I248
(lp58
g35
atp59
a(I224
I231
I252
(lp60
g6
aS'white'
p61
atp62
a(I34
I31
I47
(lp63
S'black'
p64
atp65
a(I228
I131
I241
(lp66
g18
atp67
a(I0
I82
I28
(lp68
g6
atp69
a(I167
I178
I191
(lp70
g3
atp71
a(I155
I203
I27
(lp72
g6
atp73
a(I162
I18
I54
(lp74
g48
atp75
a(I124
I126
I242
(lp76
g2
ag3
atp77
a(I193
I112
I51
(lp78
S'brown'
p79
atp80
a(I223
I112
I255
(lp81
g18
atp82
a(I125
I14
I11
(lp83
g48
ag79
atp84
a(I194
I127
I59
(lp85
g79
atp86
a(I78
I115
I71
(lp87
g6
atp88
a(I156
I216
I31
(lp89
g6
atp90
a(I114
I25
I139
(lp91
g35
atp92
a(I154
I167
I202
(lp93
g3
atp94
a(I169
I96
I107
(lp95
g35
atp96
a(I134
I219
I26
(lp97
g6
atp98
a(I229
I112
I193
(lp99
g18
atp100
a(I119
I71
I115
(lp101
g35
atp102
a(I33
I181
I156
(lp103
g9
atp104
a(I26
I173
I186
(lp105
g2
atp106
a(I104
I70
I1
(lp107
g79
atp108
a(I141
I65
I250
(lp109
g35
atp110
a(I174
I244
I249
(lp111
g9
atp112
a(I173
I44
I202
(lp113
g35
atp114
a(I227
I43
I45
(lp115
g48
atp116
a(I212
I204
I64
(lp117
tp118
a(I35
I212
I73
(lp119
g6
atp120
a(I130
I244
I3
(lp121
g6
atp122
a(I218
I163
I161
(lp123
g18
atp124
a(I31
I32
I109
(lp125
g2
atp126
a(I39
I119
I239
(lp127
g2
atp128
a(I23
I116
I103
(lp129
g9
atp130
a(I14
I103
I86
(lp131
g9
atp132
a(I221
I228
I90
(lp133
tp134
a(I13
I136
I121
(lp135
g9
atp136
a(I65
I2
I175
(lp137
g2
ag35
atp138
a(I205
I143
I92
(lp139
g79
atp140
a(I2
I21
I33
(lp141
g64
atp142
a(I163
I118
I227
(lp143
g35
ag3
atp144
a(I88
I191
I97
(lp145
g6
atp146
a(I165
I112
I237
(lp147
g35
atp148
a(I224
I79
I101
(lp149
g48
atp150
a(I89
I76
I93
(lp151
g3
atp152
a(I140
I103
I89
(lp153
g79
atp154
a(I236
I196
I146
(lp155
tp156
a(I62
I104
I204
(lp157
g2
atp158
a(I41
I74
I151
(lp159
g2
atp160
a(I252
I64
I240
(lp161
g18
atp162
a(I226
I45
I15
(lp163
g48
aS'orange'
p164
atp165
a(I227
I208
I70
(lp166
S'yellow'
p167
atp168
a(I1
I57
I215
(lp169
g2
atp170
a(I88
I129
I84
(lp171
g6
atp172
a(I38
I151
I0
(lp173
g6
atp174
a(I8
I150
I149
(lp175
g9
atp176
a(I82
I95
I203
(lp177
g2
atp178
a(I163
I35
I208
(lp179
g35
atp180
a(I86
I85
I0
(lp181
g6
ag79
atp182
a(I54
I221
I134
(lp183
g9
atp184
a(I123
I103
I10
(lp185
g79
atp186
a(I148
I43
I194
(lp187
g35
atp188
a.