(lp0
(I227
I208
I106
(lp1
S'tan'
p2
atp3
a(I227
I208
I11
(lp4
S'yellow'
p5
atp6
a(I227
I172
I39
(lp7
S'orange'
p8
atp9
a(I227
I152
I39
(lp10
g8
atp11
a(I227
I125
I39
(lp12
g8
atp13
a(I227
I97
I39
(lp14
S'red'
p15
ag8
atp16
a(I227
I67
I39
(lp17
g15
atp18
a(I227
I75
I14
(lp19
g15
ag8
atp20
a(I227
I103
I14
(lp21
g8
atp22
a(I227
I133
I14
(lp23
g8
atp24
a(I227
I161
I14
(lp25
g8
ag5
atp26
a(I227
I197
I14
(lp27
g5
atp28
a(I227
I222
I14
(lp29
g5
atp30
a(I227
I222
I97
(lp31
g2
atp32
a(I255
I175
I50
(lp33
g8
atp34
a(I255
I155
I50
(lp35
g8
atp36
a(I255
I139
I50
(lp37
g8
atp38
a(I255
I202
I50
(lp39
g8
ag5
atp40
a(I255
I139
I50
(lp41
g8
atp42
a(I225
I116
I50
(lp43
g15
ag8
atp44
a(I225
I128
I50
(lp45
g8
aS'brown'
p46
atp47
a(I225
I161
I50
(lp48
g2
atp49
a(I225
I141
I50
(lp50
g8
atp51
a(I225
I169
I80
(lp52
g2
atp53
a(I255
I144
I39
(lp54
g8
atp55
a(I255
I166
I39
(lp56
g8
ag5
atp57
a(I188
I141
I78
(lp58
S'gray'
p59
ag46
atp60
a(I188
I193
I166
(lp61
g59
atp62
a(I172
I122
I72
(lp63
g46
atp64
a(I139
I105
I47
(lp65
g46
atp66
a(I225
I105
I47
(lp67
g8
atp68
a(I225
I130
I47
(lp69
g8
atp70
a(I225
I172
I91
(lp71
g2
atp72
a(I225
I172
I116
(lp73
g2
atp74
a(I225
I197
I139
(lp75
g2
atp76
a.