(lp0
(I61
I255
I255
(lp1
S'cyan'
p2
atp3
a(I61
I255
I238
(lp4
g2
atp5
a(I61
I255
I211
(lp6
g2
atp7
a(I61
I255
I183
(lp8
g2
atp9
a(I61
I255
I144
(lp10
S'green'
p11
ag2
atp12
a(I61
I255
I105
(lp13
g11
atp14
a(I61
I255
I72
(lp15
g11
atp16
a(I61
I255
I202
(lp17
g2
atp18
a(I94
I255
I202
(lp19
g2
atp20
a(I94
I255
I255
(lp21
g2
atp22
a(I94
I255
I236
(lp23
g2
atp24
a(I94
I255
I75
(lp25
g11
atp26
a(I94
I255
I0
(lp27
g11
atp28
a(I94
I255
I211
(lp29
g2
atp30
a(I94
I255
I233
(lp31
g2
atp32
a.