(lp0
(I255
I255
I0
(lp1
S'yellow'
p2
atp3
a(I255
I255
I14
(lp4
g2
atp5
a(I255
I255
I33
(lp6
g2
atp7
a(I255
I255
I39
(lp8
g2
atp9
a(I255
I255
I69
(lp10
g2
atp11
a(I247
I227
I0
(lp12
g2
atp13
a(I238
I241
I0
(lp14
g2
atp15
a(I238
I241
I28
(lp16
g2
atp17
a(I238
I241
I39
(lp18
g2
atp19
a(I238
I249
I28
(lp20
g2
atp21
a(I255
I0
I0
(lp22
S'red'
p23
atp24
a(I216
I0
I0
(lp25
g23
atp26
a(I233
I0
I0
(lp27
g23
atp28
a(I241
I0
I0
(lp29
g23
atp30
a(I241
I33
I30
(lp31
g23
atp32
a(I241
I33
I11
(lp33
g23
atp34
a(I241
I19
I11
(lp35
g23
atp36
a(I241
I19
I28
(lp37
g23
atp38
a(I213
I19
I28
(lp39
g23
atp40
a(I213
I19
I14
(lp41
g23
atp42
a(I0
I255
I255
(lp43
S'cyan'
p44
atp45
a(I0
I255
I0
(lp46
S'green'
p47
atp48
a(I0
I0
I255
(lp49
S'blue'
p50
atp51
a(I0
I0
I0
(lp52
S'black'
p53
atp54
a(I17
I17
I28
(lp55
g53
atp56
a(I17
I17
I17
(lp57
g53
atp58
a(I6
I17
I17
(lp59
g53
atp60
a(I6
I17
I8
(lp61
g53
atp62
a(I6
I8
I8
(lp63
g53
atp64
a(I6
I8
I14
(lp65
g53
atp66
a(I28
I8
I14
(lp67
g53
atp68
a(I89
I89
I91
(lp69
S'gray'
p70
atp71
a(I116
I122
I128
(lp72
g70
atp73
a(I100
I91
I75
(lp74
g70
atp75
a(I172
I169
I175
(lp76
g70
atp77
a(I155
I152
I136
(lp78
g70
atp79
a(I161
I164
I177
(lp80
g70
atp81
a(I194
I194
I197
(lp82
g70
atp83
a(I83
I83
I86
(lp84
g70
atp85
a(I42
I39
I39
(lp86
g53
atp87
a(I25
I30
I14
(lp88
g53
atp89
a(I25
I19
I14
(lp90
g53
atp91
a(I25
I19
I186
(lp92
g50
atp93
a(I25
I50
I186
(lp94
g50
atp95
a(I106
I50
I186
(lp96
g50
aS'violet'
p97
atp98
a(I106
I69
I186
(lp99
g50
ag97
atp100
a(I106
I69
I152
(lp101
g50
ag97
atp102
a(I106
I122
I152
(lp103
g50
ag70
atp104
a(I229
I133
I58
(lp105
S'orange'
p106
atp107
a(I229
I152
I83
(lp108
g106
atp109
a(I229
I136
I36
(lp110
g106
atp111
a(I255
I136
I36
(lp112
g106
atp113
a(I255
I172
I36
(lp114
g106
atp115
a(I255
I94
I36
(lp116
g23
ag106
atp117
a(I255
I94
I0
(lp118
g106
atp119
a(I255
I108
I0
(lp120
g106
atp121
a(I255
I139
I0
(lp122
g106
atp123
a(I255
I0
I255
(lp124
S'pink'
p125
atp126
a(I255
I33
I255
(lp127
g125
atp128
a(I255
I11
I255
(lp129
g125
atp130
a(I255
I64
I255
(lp131
g125
atp132
a(I194
I78
I188
(lp133
g97
atp134
a(I194
I78
I155
(lp135
g97
atp136
a(I141
I78
I155
(lp137
g97
atp138
a(I141
I44
I155
(lp139
g97
atp140
a(I161
I44
I166
(lp141
g97
atp142
a(I161
I44
I202
(lp143
g97
atp144
a(I177
I39
I202
(lp145
g97
atp146
a(I177
I39
I61
(lp147
g23
atp148
a(I177
I39
I119
(lp149
g23
ag97
atp150
a(I177
I39
I172
(lp151
g97
atp152
a(I0
I255
I26
(lp153
g47
atp154
a(I0
I255
I69
(lp155
g47
atp156
a(I0
I255
I105
(lp157
g47
atp158
a(I0
I255
I136
(lp159
g47
ag44
atp160
a(I0
I255
I180
(lp161
g44
atp162
a(I0
I255
I211
(lp163
g44
atp164
a(I0
I219
I61
(lp165
g47
atp166
a(I44
I219
I61
(lp167
g47
atp168
a(I44
I219
I108
(lp169
g47
atp170
a(I44
I219
I169
(lp171
g44
atp172
a(I44
I205
I169
(lp173
g44
atp174
a(I78
I205
I169
(lp175
g44
atp176
a(I50
I205
I200
(lp177
g44
atp178
a(I255
I255
I255
(lp179
S'white'
p180
atp181
a(I255
I255
I230
(lp182
g180
atp183
a(I255
I247
I230
(lp184
g180
atp185
a(I255
I247
I241
(lp186
g180
atp187
a(I238
I247
I241
(lp188
g180
atp189
a(I238
I233
I241
(lp190
g180
atp191
a(I238
I227
I241
(lp192
g180
atp193
a(I238
I227
I230
(lp194
g180
atp195
a(I252
I247
I230
(lp196
g180
atp197
a(I252
I247
I241
(lp198
g180
atp199
a(I252
I177
I241
(lp200
g125
atp201
a(I252
I177
I213
(lp202
g125
atp203
a(I219
I177
I213
(lp204
g97
atp205
a(I219
I177
I136
(lp206
tp207
a(I225
I213
I147
(lp208
tp209
a(I219
I186
I97
(lp210
tp211
a(I175
I139
I69
(lp212
S'brown'
p213
atp214
a(I161
I128
I39
(lp215
g213
atp216
a(I161
I116
I39
(lp217
g213
atp218
a(I144
I91
I14
(lp219
g213
atp220
a(I114
I67
I14
(lp221
g213
atp222
a(I97
I55
I6
(lp223
g213
atp224
a(I152
I177
I6
(lp225
g2
ag47
atp226
a(I152
I50
I6
(lp227
g23
ag213
atp228
a(I152
I50
I28
(lp229
g23
ag213
atp230
a(I141
I128
I119
(lp231
g70
atp232
a(I80
I211
I164
(lp233
g44
atp234
a(I80
I180
I211
(lp235
g50
atp236
a(I116
I180
I211
(lp237
g50
atp238
a(I116
I216
I211
(lp239
g44
atp240
a(I213
I216
I211
(lp241
g70
atp242
a(I230
I230
I233
(lp243
g180
atp244
a(I238
I125
I36
(lp245
g106
atp246
a(I236
I150
I64
(lp247
g106
atp248
a(I241
I197
I111
(lp249
tp250
a(I241
I139
I0
(lp251
g106
atp252
a(I241
I197
I0
(lp253
g2
atp254
a(I241
I141
I47
(lp255
g106
atp256
a(I241
I186
I67
(lp257
tp258
a(I241
I186
I103
(lp259
tp260
a(I216
I191
I136
(lp261
tp262
a(I202
I191
I166
(lp263
g70
atp264
a.