(lp0
(I105
I8
I252
(lp1
S'blue'
p2
aS'violet'
p3
atp4
a(I149
I39
I249
(lp5
g3
atp6
a(I5
I56
I112
(lp7
g2
atp8
a(I80
I235
I80
(lp9
S'green'
p10
atp11
a(I185
I45
I128
(lp12
S'red'
p13
ag3
atp14
a(I118
I106
I79
(lp15
S'gray'
p16
aS'brown'
p17
atp18
a(I142
I216
I115
(lp19
g10
atp20
a(I219
I65
I175
(lp21
S'pink'
p22
atp23
a(I55
I140
I140
(lp24
g2
atp25
a(I215
I134
I94
(lp26
S'orange'
p27
ag17
atp28
a(I220
I239
I206
(lp29
S'cyan'
p30
aS'white'
p31
atp32
a(I152
I219
I139
(lp33
g10
atp34
a(I188
I174
I30
(lp35
S'yellow'
p36
ag10
atp37
a(I163
I92
I111
(lp38
g3
ag17
atp39
a(I197
I240
I40
(lp40
g36
ag10
atp41
a(I123
I249
I226
(lp42
g30
atp43
a(I129
I251
I75
(lp44
g10
atp45
a(I229
I248
I246
(lp46
g31
atp47
a(I177
I39
I157
(lp48
g3
atp49
a(I149
I128
I82
(lp50
g17
atp51
a(I134
I141
I41
(lp52
g10
ag17
atp53
a(I221
I66
I223
(lp54
g22
atp55
a(I92
I83
I193
(lp56
g2
atp57
a(I8
I236
I163
(lp58
g30
atp59
a(I43
I133
I23
(lp60
g10
atp61
a(I254
I83
I92
(lp62
g13
atp63
a(I143
I215
I126
(lp64
g10
atp65
a(I60
I39
I31
(lp66
S'black'
p67
atp68
a(I254
I156
I200
(lp69
g22
atp70
a(I131
I200
I240
(lp71
g2
atp72
a(I142
I247
I87
(lp73
g10
atp74
a(I44
I78
I76
(lp75
g2
atp76
a(I249
I173
I179
(lp77
g22
atp78
a(I209
I50
I66
(lp79
g13
atp80
a(I103
I30
I212
(lp81
g2
ag3
atp82
a(I170
I78
I209
(lp83
g3
atp84
a(I166
I221
I22
(lp85
g36
ag10
atp86
a(I65
I179
I163
(lp87
g30
atp88
a(I24
I129
I73
(lp89
g10
atp90
a(I241
I148
I246
(lp91
g22
atp92
a(I204
I166
I39
(lp93
S'tan'
p94
atp95
a(I160
I154
I217
(lp96
g16
atp97
a(I127
I179
I161
(lp98
g16
atp99
a(I50
I227
I240
(lp100
g30
atp101
a(I209
I180
I62
(lp102
g94
atp103
a(I21
I239
I165
(lp104
g30
atp105
a(I10
I218
I189
(lp106
g30
atp107
a(I213
I117
I236
(lp108
g22
atp109
a(I57
I68
I237
(lp110
g2
atp111
a(I219
I74
I55
(lp112
g13
atp113
a(I175
I167
I24
(lp114
g36
ag10
atp115
a(I169
I193
I18
(lp116
g36
ag10
atp117
a(I81
I148
I167
(lp118
g2
atp119
a(I254
I46
I171
(lp120
g22
atp121
a(I200
I127
I55
(lp122
g17
atp123
a(I57
I1
I187
(lp124
g2
atp125
a(I23
I190
I115
(lp126
g10
atp127
a(I228
I231
I16
(lp128
g36
atp129
a(I98
I85
I7
(lp130
g17
atp131
a(I45
I2
I160
(lp132
g2
atp133
a(I33
I224
I111
(lp134
g10
atp135
a(I127
I15
I87
(lp136
g3
atp137
a(I1
I95
I251
(lp138
g2
atp139
a(I69
I123
I235
(lp140
g2
atp141
a(I225
I93
I148
(lp142
g22
atp143
a(I50
I65
I234
(lp144
g2
atp145
a(I158
I113
I147
(lp146
g16
atp147
a(I94
I237
I85
(lp148
g10
atp149
a(I139
I252
I156
(lp150
g10
ag30
atp151
a(I176
I254
I249
(lp152
g10
ag30
atp153
a(I117
I95
I75
(lp154
g16
ag17
atp155
a(I46
I55
I149
(lp156
g2
atp157
a(I155
I22
I149
(lp158
g3
atp159
a(I150
I158
I247
(lp160
g2
ag16
atp161
a(I108
I181
I201
(lp162
g2
atp163
a(I8
I59
I252
(lp164
g2
atp165
a(I173
I129
I77
(lp166
g17
atp167
a(I97
I3
I1
(lp168
g13
ag17
atp169
a(I78
I232
I76
(lp170
g10
atp171
a(I159
I30
I60
(lp172
g13
ag3
atp173
a(I217
I38
I249
(lp174
g22
atp175
a(I160
I157
I197
(lp176
g2
ag16
atp177
a(I21
I68
I208
(lp178
g2
atp179
a(I9
I244
I74
(lp180
g10
atp181
a(I9
I30
I164
(lp182
g2
atp183
a(I175
I16
I58
(lp184
g13
atp185
a(I190
I208
I244
(lp186
g30
ag16
atp187
a(I181
I58
I189
(lp188
g3
atp189
a(I25
I23
I155
(lp190
g2
atp191
a(I252
I135
I8
(lp192
g27
atp193
a(I143
I28
I234
(lp194
g3
atp195
a(I132
I247
I244
(lp196
g30
atp197
a(I114
I239
I29
(lp198
g10
atp199
a(I95
I187
I187
(lp200
g2
atp201
a(I241
I117
I213
(lp202
g22
atp203
a(I80
I102
I32
(lp204
g10
ag17
atp205
a(I89
I216
I66
(lp206
g10
atp207
a(I18
I57
I22
(lp208
g10
atp209
a(I161
I168
I160
(lp210
g16
atp211
a(I195
I244
I74
(lp212
g36
atp213
a(I61
I25
I248
(lp214
g2
atp215
a(I203
I179
I181
(lp216
g16
atp217
a(I182
I102
I125
(lp218
g3
ag22
atp219
a(I122
I33
I87
(lp220
g3
atp221
a(I199
I138
I177
(lp222
g3
ag22
atp223
a(I230
I2
I51
(lp224
g13
atp225
a(I162
I201
I114
(lp226
g10
atp227
a(I187
I80
I221
(lp228
g3
atp229
a(I250
I84
I167
(lp230
g22
atp231
a.