(lp0
(I0
I67
I131
(lp1
S'blue'
p2
atp3
a(I0
I67
I177
(lp4
g2
atp5
a(I0
I67
I216
(lp6
g2
atp7
a(I0
I94
I128
(lp8
g2
atp9
a(I0
I94
I155
(lp10
g2
atp11
a(I0
I114
I175
(lp12
g2
atp13
a(I0
I133
I194
(lp14
g2
atp15
a(I0
I133
I222
(lp16
g2
atp17
a(I0
I155
I222
(lp18
S'cyan'
p19
atp20
a(I0
I180
I222
(lp21
g19
atp22
a(I0
I200
I222
(lp23
g19
atp24
a(I0
I222
I238
(lp25
g19
atp26
a(I0
I236
I238
(lp27
g19
atp28
a(I0
I119
I64
(lp29
S'green'
p30
atp31
a(I0
I147
I91
(lp32
g30
atp33
a(I0
I166
I111
(lp34
g30
atp35
a(I0
I194
I136
(lp36
g19
atp37
a(I0
I194
I158
(lp38
g19
atp39
a(I0
I202
I158
(lp40
g19
atp41
a(I0
I202
I183
(lp42
g19
atp43
a(I0
I219
I183
(lp44
g19
atp45
a(I0
I219
I205
(lp46
g19
atp47
a(I44
I0
I119
(lp48
g2
aS'violet'
p49
atp50
a(I80
I0
I119
(lp51
g49
atp52
a(I108
I0
I119
(lp53
g49
atp54
a(I0
I0
I152
(lp55
g2
atp56
a.