(lp0
(I238
I117
I245
(lp1
S'pink'
p2
atp3
a(I15
I123
I120
(lp4
S'blue'
p5
aS'cyan'
p6
atp7
a(I15
I14
I110
(lp8
g5
atp9
a(I237
I63
I60
(lp10
S'red'
p11
atp12
a(I83
I209
I211
(lp13
g6
atp14
a(I25
I71
I86
(lp15
g5
atp16
a(I126
I181
I91
(lp17
S'green'
p18
atp19
a(I141
I233
I169
(lp20
g6
atp21
a(I242
I226
I33
(lp22
S'yellow'
p23
atp24
a(I238
I193
I179
(lp25
g2
atp26
a(I6
I183
I186
(lp27
g5
ag6
atp28
a(I86
I76
I72
(lp29
S'gray'
p30
atp31
a(I48
I231
I57
(lp32
g18
atp33
a(I182
I186
I236
(lp34
g30
atp35
a(I28
I203
I160
(lp36
g6
atp37
a(I228
I13
I208
(lp38
g2
atp39
a(I145
I23
I243
(lp40
S'violet'
p41
atp42
a(I87
I110
I80
(lp43
g30
atp44
a(I209
I91
I207
(lp45
g2
atp46
a(I89
I107
I242
(lp47
g5
atp48
a(I132
I237
I92
(lp49
g18
atp50
a(I194
I6
I10
(lp51
g11
atp52
a(I43
I126
I216
(lp53
g5
atp54
a(I144
I51
I43
(lp55
g11
aS'brown'
p56
atp57
a(I157
I93
I27
(lp58
g56
atp59
a(I23
I99
I15
(lp60
g18
atp61
a(I105
I161
I70
(lp62
g18
atp63
a(I226
I176
I113
(lp64
tp65
a(I108
I134
I235
(lp66
g5
atp67
a(I33
I214
I126
(lp68
g18
ag6
atp69
a(I37
I22
I189
(lp70
g5
atp71
a(I200
I31
I193
(lp72
g41
atp73
a(I151
I107
I120
(lp74
g41
ag30
atp75
a(I146
I187
I111
(lp76
g18
atp77
a(I195
I214
I94
(lp78
g23
ag18
atp79
a(I163
I10
I250
(lp80
g41
atp81
a(I110
I160
I127
(lp82
g5
ag30
atp83
a(I60
I41
I88
(lp84
g5
ag41
atp85
a(I1
I142
I125
(lp86
g6
atp87
a(I235
I161
I6
(lp88
S'orange'
p89
ag23
atp90
a(I226
I141
I38
(lp91
g89
atp92
a(I106
I169
I91
(lp93
g18
atp94
a(I137
I71
I90
(lp95
g41
atp96
a(I224
I78
I238
(lp97
g2
atp98
a(I232
I79
I22
(lp99
g89
atp100
a(I139
I48
I102
(lp101
g41
atp102
a(I212
I205
I156
(lp103
g30
atp104
a(I11
I189
I214
(lp105
g6
atp106
a(I54
I63
I155
(lp107
g5
atp108
a(I55
I0
I169
(lp109
g5
atp110
a(I204
I41
I86
(lp111
g2
atp112
a(I177
I124
I27
(lp113
g56
atp114
a(I4
I73
I243
(lp115
g5
atp116
a(I60
I99
I163
(lp117
g5
atp118
a(I85
I47
I199
(lp119
g5
ag41
atp120
a(I93
I201
I229
(lp121
g6
atp122
a(I225
I172
I91
(lp123
tp124
a(I14
I178
I108
(lp125
g18
atp126
a(I147
I201
I75
(lp127
g18
atp128
a(I72
I63
I141
(lp129
g5
atp130
a(I201
I63
I202
(lp131
g41
ag2
atp132
a(I246
I34
I141
(lp133
g2
atp134
a(I75
I252
I238
(lp135
g6
atp136
a(I188
I238
I74
(lp137
g18
atp138
a(I40
I99
I244
(lp139
g5
atp140
a(I73
I187
I50
(lp141
g18
atp142
a(I4
I14
I151
(lp143
g5
atp144
a(I49
I205
I198
(lp145
g6
atp146
a(I2
I116
I245
(lp147
g5
atp148
a(I22
I76
I110
(lp149
g5
atp150
a(I139
I163
I31
(lp151
g18
atp152
a(I89
I31
I54
(lp153
g41
atp154
a(I218
I247
I171
(lp155
S'white'
p156
atp157
a(I71
I214
I219
(lp158
g6
atp159
a(I211
I223
I42
(lp160
g23
atp161
a(I106
I18
I246
(lp162
g5
ag41
atp163
a(I200
I106
I50
(lp164
g89
ag56
atp165
a(I224
I175
I230
(lp166
g2
ag30
atp167
a(I53
I18
I58
(lp168
g41
atp169
a(I39
I241
I12
(lp170
g18
atp171
a.