(lp0
(I55
I47
I42
(lp1
S'gray'
p2
atp3
a(I50
I55
I50
(lp4
g2
atp5
a(I72
I61
I50
(lp6
g2
atp7
a(I72
I61
I64
(lp8
g2
atp9
a(I72
I78
I72
(lp10
g2
atp11
a(I94
I78
I86
(lp12
g2
atp13
a(I94
I94
I86
(lp14
g2
atp15
a(I44
I42
I28
(lp16
S'black'
p17
atp18
a(I44
I42
I47
(lp19
g17
atp20
a(I75
I64
I69
(lp21
g2
atp22
a(I100
I111
I100
(lp23
g2
atp24
a(I133
I133
I128
(lp25
g2
atp26
a(I147
I133
I128
(lp27
g2
atp28
a(I147
I152
I166
(lp29
g2
atp30
a(I186
I180
I166
(lp31
g2
atp32
a.