(lp0
(I0
I11
I0
(lp1
S'black'
p2
atp3
a(I0
I28
I0
(lp4
g2
atp5
a(I0
I55
I0
(lp6
S'green'
p7
atp8
a(I0
I75
I0
(lp9
g7
atp10
a(I0
I100
I0
(lp11
g7
atp12
a(I0
I128
I0
(lp13
g7
atp14
a(I0
I155
I0
(lp15
g7
atp16
a(I0
I183
I0
(lp17
g7
atp18
a(I0
I211
I0
(lp19
g7
atp20
a(I0
I249
I0
(lp21
g7
atp22
a(I0
I0
I19
(lp23
g2
atp24
a(I0
I25
I19
(lp25
g2
atp26
a(I0
I97
I19
(lp27
g7
atp28
a(I0
I125
I19
(lp29
g7
atp30
a(I0
I169
I19
(lp31
g7
atp32
a(I0
I208
I19
(lp33
g7
atp34
a(I0
I233
I19
(lp35
g7
atp36
a(I0
I255
I19
(lp37
g7
atp38
a(I22
I0
I17
(lp39
g2
atp40
a(I22
I22
I17
(lp41
g2
atp42
a(I22
I69
I17
(lp43
g7
atp44
a(I22
I108
I17
(lp45
g7
atp46
a(I22
I136
I17
(lp47
g7
atp48
a(I22
I169
I17
(lp49
g7
atp50
a(I22
I191
I17
(lp51
g7
atp52
a(I22
I219
I17
(lp53
g7
atp54
a(I22
I255
I17
(lp55
g7
atp56
a.