(lp0
(I64
I244
I0
(lp1
S'green'
p2
atp3
a(I64
I244
I36
(lp4
g2
atp5
a(I64
I244
I53
(lp6
g2
atp7
a(I64
I244
I72
(lp8
g2
atp9
a(I64
I244
I97
(lp10
g2
atp11
a(I64
I244
I105
(lp12
g2
atp13
a(I64
I244
I119
(lp14
g2
atp15
a(I64
I244
I164
(lp16
S'cyan'
p17
atp18
a(I64
I244
I183
(lp19
g17
atp20
a(I64
I244
I205
(lp21
g17
atp22
a(I89
I244
I28
(lp23
g2
atp24
a(I89
I244
I72
(lp25
g2
atp26
a(I89
I244
I124
(lp27
g2
atp28
a(I89
I244
I150
(lp29
g2
ag17
atp30
a(I89
I244
I172
(lp31
g17
atp32
a(I89
I244
I194
(lp33
g17
atp34
a(I108
I244
I36
(lp35
g2
atp36
a(I108
I244
I78
(lp37
g2
atp38
a(I108
I244
I108
(lp39
g2
atp40
a(I108
I244
I152
(lp41
g2
ag17
atp42
a(I108
I244
I177
(lp43
g17
atp44
a(I108
I244
I200
(lp45
g17
atp46
a(I108
I244
I255
(lp47
g17
atp48
a.