(lp0
(I139
I123
I209
(lp1
S'blue'
p2
aS'gray'
p3
atp4
a(I19
I222
I117
(lp5
S'green'
p6
atp7
a(I89
I187
I218
(lp8
S'cyan'
p9
atp10
a(I59
I211
I17
(lp11
g6
atp12
a(I106
I241
I73
(lp13
g6
atp14
a(I56
I249
I104
(lp15
g6
atp16
a(I224
I73
I127
(lp17
S'pink'
p18
atp19
a(I72
I111
I16
(lp20
g6
atp21
a(I17
I219
I50
(lp22
g6
atp23
a(I122
I227
I243
(lp24
g9
atp25
a(I51
I183
I136
(lp26
g9
atp27
a(I114
I255
I3
(lp28
g6
atp29
a(I39
I86
I101
(lp30
g2
atp31
a(I12
I190
I238
(lp32
g2
atp33
a(I65
I52
I114
(lp34
g2
aS'violet'
p35
atp36
a(I78
I75
I97
(lp37
g3
atp38
a(I171
I115
I175
(lp39
g35
atp40
a(I20
I145
I164
(lp41
g2
atp42
a(I106
I72
I123
(lp43
g35
atp44
a(I199
I149
I242
(lp45
g35
atp46
a(I137
I12
I4
(lp47
S'red'
p48
atp49
a(I196
I62
I193
(lp50
g18
atp51
a(I222
I181
I236
(lp52
g18
ag3
atp53
a(I69
I138
I62
(lp54
g6
atp55
a(I249
I193
I131
(lp56
S'tan'
p57
atp58
a(I194
I27
I248
(lp59
g35
atp60
a(I224
I231
I252
(lp61
g6
aS'white'
p62
atp63
a(I34
I31
I47
(lp64
S'black'
p65
atp66
a(I228
I131
I241
(lp67
g18
atp68
a(I0
I82
I28
(lp69
g6
atp70
a(I167
I178
I191
(lp71
g3
atp72
a(I155
I203
I27
(lp73
g6
atp74
a(I162
I18
I54
(lp75
g48
atp76
a(I124
I126
I242
(lp77
g2
ag3
atp78
a(I193
I112
I51
(lp79
S'brown'
p80
atp81
a(I223
I112
I255
(lp82
g18
atp83
a(I125
I14
I11
(lp84
g48
ag80
atp85
a(I194
I127
I59
(lp86
g80
atp87
a(I78
I115
I71
(lp88
g6
atp89
a(I156
I216
I31
(lp90
g6
atp91
a(I114
I25
I139
(lp92
g35
atp93
a(I154
I167
I202
(lp94
g3
atp95
a(I169
I96
I107
(lp96
g35
atp97
a(I134
I219
I26
(lp98
g6
atp99
a(I229
I112
I193
(lp100
g18
atp101
a(I119
I71
I115
(lp102
g35
atp103
a(I33
I181
I156
(lp104
g9
atp105
a(I26
I173
I186
(lp106
g2
atp107
a(I104
I70
I1
(lp108
g80
atp109
a(I141
I65
I250
(lp110
g35
atp111
a(I174
I244
I249
(lp112
g9
atp113
a(I173
I44
I202
(lp114
g35
atp115
a(I227
I43
I45
(lp116
g48
atp117
a(I212
I204
I64
(lp118
g57
atp119
a(I35
I212
I73
(lp120
g6
atp121
a(I130
I244
I3
(lp122
g6
atp123
a(I218
I163
I161
(lp124
g18
atp125
a(I31
I32
I109
(lp126
g2
atp127
a(I39
I119
I239
(lp128
g2
atp129
a(I23
I116
I103
(lp130
g9
atp131
a(I14
I103
I86
(lp132
g9
atp133
a(I221
I228
I90
(lp134
g57
atp135
a(I13
I136
I121
(lp136
g9
atp137
a(I65
I2
I175
(lp138
g2
ag35
atp139
a(I205
I143
I92
(lp140
g80
atp141
a(I2
I21
I33
(lp142
g65
atp143
a(I163
I118
I227
(lp144
g35
ag3
atp145
a(I88
I191
I97
(lp146
g6
atp147
a(I165
I112
I237
(lp148
g35
atp149
a(I224
I79
I101
(lp150
g48
atp151
a(I89
I76
I93
(lp152
g3
atp153
a(I140
I103
I89
(lp154
g80
atp155
a(I236
I196
I146
(lp156
g57
atp157
a(I62
I104
I204
(lp158
g2
atp159
a(I41
I74
I151
(lp160
g2
atp161
a(I252
I64
I240
(lp162
g18
atp163
a(I226
I45
I15
(lp164
g48
aS'orange'
p165
atp166
a(I227
I208
I70
(lp167
S'yellow'
p168
ag57
atp169
a(I1
I57
I215
(lp170
g2
atp171
a(I88
I129
I84
(lp172
g6
atp173
a(I38
I151
I0
(lp174
g6
atp175
a(I8
I150
I149
(lp176
g9
atp177
a(I82
I95
I203
(lp178
g2
atp179
a(I163
I35
I208
(lp180
g35
atp181
a(I86
I85
I0
(lp182
g6
ag80
atp183
a(I54
I221
I134
(lp184
g9
atp185
a(I123
I103
I10
(lp186
g80
atp187
a(I148
I43
I194
(lp188
g35
atp189
a.