(lp0
(I105
I8
I252
(lp1
S'blue'
p2
aS'violet'
p3
atp4
a(I149
I39
I249
(lp5
g3
atp6
a(I5
I56
I112
(lp7
g2
atp8
a(I80
I235
I80
(lp9
S'green'
p10
atp11
a(I185
I45
I128
(lp12
S'red'
p13
ag3
atp14
a(I118
I106
I79
(lp15
S'gray'
p16
aS'brown'
p17
atp18
a(I142
I216
I115
(lp19
g10
atp20
a(I219
I65
I175
(lp21
S'pink'
p22
atp23
a(I55
I140
I140
(lp24
g2
atp25
a(I215
I134
I94
(lp26
S'orange'
p27
ag17
atp28
a(I220
I239
I206
(lp29
S'cyan'
p30
aS'white'
p31
atp32
a(I152
I219
I139
(lp33
g10
atp34
a(I188
I174
I30
(lp35
S'yellow'
p36
ag10
atp37
a(I163
I92
I111
(lp38
g3
ag17
atp39
a(I197
I240
I40
(lp40
g36
ag10
atp41
a(I123
I249
I226
(lp42
g30
atp43
a(I129
I251
I75
(lp44
g10
atp45
a(I229
I248
I246
(lp46
g31
atp47
a(I177
I39
I157
(lp48
g3
atp49
a(I149
I128
I82
(lp50
g17
atp51
a(I134
I141
I41
(lp52
g10
ag17
atp53
a(I221
I66
I223
(lp54
g22
atp55
a(I92
I83
I193
(lp56
g2
atp57
a(I8
I236
I163
(lp58
g30
atp59
a(I43
I133
I23
(lp60
g10
atp61
a(I254
I83
I92
(lp62
g13
atp63
a(I143
I215
I126
(lp64
g10
atp65
a(I60
I39
I31
(lp66
S'black'
p67
atp68
a(I254
I156
I200
(lp69
g22
atp70
a(I131
I200
I240
(lp71
g2
atp72
a(I142
I247
I87
(lp73
g10
atp74
a(I44
I78
I76
(lp75
g2
atp76
a(I249
I173
I179
(lp77
g22
atp78
a(I209
I50
I66
(lp79
g13
atp80
a(I103
I30
I212
(lp81
g2
ag3
atp82
a(I170
I78
I209
(lp83
g3
atp84
a(I166
I221
I22
(lp85
g36
ag10
atp86
a(I65
I179
I163
(lp87
g30
atp88
a(I24
I129
I73
(lp89
g10
atp90
a(I241
I148
I246
(lp91
g22
atp92
a(I204
I166
I39
(lp93
tp94
a(I160
I154
I217
(lp95
g16
atp96
a(I127
I179
I161
(lp97
g16
atp98
a(I50
I227
I240
(lp99
g30
atp100
a(I209
I180
I62
(lp101
tp102
a(I21
I239
I165
(lp103
g30
atp104
a(I10
I218
I189
(lp105
g30
atp106
a(I213
I117
I236
(lp107
g22
atp108
a(I57
I68
I237
(lp109
g2
atp110
a(I219
I74
I55
(lp111
g13
atp112
a(I175
I167
I24
(lp113
g36
ag10
atp114
a(I169
I193
I18
(lp115
g36
ag10
atp116
a(I81
I148
I167
(lp117
g2
atp118
a(I254
I46
I171
(lp119
g22
atp120
a(I200
I127
I55
(lp121
g17
atp122
a(I57
I1
I187
(lp123
g2
atp124
a(I23
I190
I115
(lp125
g10
atp126
a(I228
I231
I16
(lp127
g36
atp128
a(I98
I85
I7
(lp129
g17
atp130
a(I45
I2
I160
(lp131
g2
atp132
a(I33
I224
I111
(lp133
g10
atp134
a(I127
I15
I87
(lp135
g3
atp136
a(I1
I95
I251
(lp137
g2
atp138
a(I69
I123
I235
(lp139
g2
atp140
a(I225
I93
I148
(lp141
g22
atp142
a(I50
I65
I234
(lp143
g2
atp144
a(I158
I113
I147
(lp145
g16
atp146
a(I94
I237
I85
(lp147
g10
atp148
a(I139
I252
I156
(lp149
g10
ag30
atp150
a(I176
I254
I249
(lp151
g10
ag30
atp152
a(I117
I95
I75
(lp153
g16
ag17
atp154
a(I46
I55
I149
(lp155
g2
atp156
a(I155
I22
I149
(lp157
g3
atp158
a(I150
I158
I247
(lp159
g2
ag16
atp160
a(I108
I181
I201
(lp161
g2
atp162
a(I8
I59
I252
(lp163
g2
atp164
a(I173
I129
I77
(lp165
g17
atp166
a(I97
I3
I1
(lp167
g13
ag17
atp168
a(I78
I232
I76
(lp169
g10
atp170
a(I159
I30
I60
(lp171
g13
ag3
atp172
a(I217
I38
I249
(lp173
g22
atp174
a(I160
I157
I197
(lp175
g2
ag16
atp176
a(I21
I68
I208
(lp177
g2
atp178
a(I9
I244
I74
(lp179
g10
atp180
a(I9
I30
I164
(lp181
g2
atp182
a(I175
I16
I58
(lp183
g13
atp184
a(I190
I208
I244
(lp185
g30
ag16
atp186
a(I181
I58
I189
(lp187
g3
atp188
a(I25
I23
I155
(lp189
g2
atp190
a(I252
I135
I8
(lp191
g27
atp192
a(I143
I28
I234
(lp193
g3
atp194
a(I132
I247
I244
(lp195
g30
atp196
a(I114
I239
I29
(lp197
g10
atp198
a(I95
I187
I187
(lp199
g2
atp200
a(I241
I117
I213
(lp201
g22
atp202
a(I80
I102
I32
(lp203
g10
ag17
atp204
a(I89
I216
I66
(lp205
g10
atp206
a(I18
I57
I22
(lp207
g10
atp208
a(I161
I168
I160
(lp209
g16
atp210
a(I195
I244
I74
(lp211
g36
atp212
a(I61
I25
I248
(lp213
g2
atp214
a(I203
I179
I181
(lp215
g16
atp216
a(I182
I102
I125
(lp217
g3
ag22
atp218
a(I122
I33
I87
(lp219
g3
atp220
a(I199
I138
I177
(lp221
g3
ag22
atp222
a(I230
I2
I51
(lp223
g13
atp224
a(I162
I201
I114
(lp225
g10
atp226
a(I187
I80
I221
(lp227
g3
atp228
a(I250
I84
I167
(lp229
g22
atp230
a.