(lp0
(I227
I208
I106
(lp1
tp2
a(I227
I208
I11
(lp3
S'yellow'
p4
atp5
a(I227
I172
I39
(lp6
S'orange'
p7
atp8
a(I227
I152
I39
(lp9
g7
atp10
a(I227
I125
I39
(lp11
g7
atp12
a(I227
I97
I39
(lp13
S'red'
p14
ag7
atp15
a(I227
I67
I39
(lp16
g14
atp17
a(I227
I75
I14
(lp18
g14
ag7
atp19
a(I227
I103
I14
(lp20
g7
atp21
a(I227
I133
I14
(lp22
g7
atp23
a(I227
I161
I14
(lp24
g7
ag4
atp25
a(I227
I197
I14
(lp26
g4
atp27
a(I227
I222
I14
(lp28
g4
atp29
a(I227
I222
I97
(lp30
tp31
a(I255
I175
I50
(lp32
g7
atp33
a(I255
I155
I50
(lp34
g7
atp35
a(I255
I139
I50
(lp36
g7
atp37
a(I255
I202
I50
(lp38
g7
ag4
atp39
a(I255
I139
I50
(lp40
g7
atp41
a(I225
I116
I50
(lp42
g14
ag7
atp43
a(I225
I128
I50
(lp44
g7
aS'brown'
p45
atp46
a(I225
I161
I50
(lp47
tp48
a(I225
I141
I50
(lp49
g7
atp50
a(I225
I169
I80
(lp51
tp52
a(I255
I144
I39
(lp53
g7
atp54
a(I255
I166
I39
(lp55
g7
ag4
atp56
a(I188
I141
I78
(lp57
S'gray'
p58
ag45
atp59
a(I188
I193
I166
(lp60
g58
atp61
a(I172
I122
I72
(lp62
g45
atp63
a(I139
I105
I47
(lp64
g45
atp65
a(I225
I105
I47
(lp66
g7
atp67
a(I225
I130
I47
(lp68
g7
atp69
a(I225
I172
I91
(lp70
tp71
a(I225
I172
I116
(lp72
tp73
a(I225
I197
I139
(lp74
tp75
a.