(lp0
(I238
I254
I94
(lp1
S'yellow'
p2
atp3
a(I238
I254
I119
(lp4
g2
atp5
a(I238
I254
I141
(lp6
g2
atp7
a(I238
I254
I166
(lp8
S'white'
p9
atp10
a(I238
I254
I183
(lp11
g9
atp12
a(I238
I254
I213
(lp13
g9
atp14
a(I238
I254
I233
(lp15
g9
atp16
a(I238
I254
I42
(lp17
g2
atp18
a(I238
I254
I67
(lp19
g2
atp20
a(I238
I254
I86
(lp21
g2
atp22
a(I255
I254
I86
(lp23
g2
atp24
a(I255
I254
I55
(lp25
g2
atp26
a(I255
I254
I125
(lp27
tp28
a(I236
I222
I108
(lp29
tp30
a(I236
I222
I139
(lp31
tp32
a(I236
I222
I42
(lp33
g2
atp34
a(I236
I222
I139
(lp35
tp36
a(I236
I222
I158
(lp37
tp38
a(I236
I222
I183
(lp39
S'gray'
p40
atp41
a(I236
I222
I205
(lp42
g40
atp43
a(I219
I222
I205
(lp44
g40
atp45
a(I219
I222
I14
(lp46
g2
atp47
a(I219
I222
I50
(lp48
g2
atp49
a.