(lp0
(I30
I241
I208
(lp1
S'cyan'
p2
atp3
a(I30
I241
I219
(lp4
g2
atp5
a(I30
I241
I233
(lp6
g2
atp7
a(I30
I241
I247
(lp8
g2
atp9
a(I30
I241
I255
(lp10
g2
atp11
a(I30
I255
I255
(lp12
g2
atp13
a(I30
I255
I233
(lp14
g2
atp15
a(I30
I255
I208
(lp16
g2
atp17
a(I30
I255
I191
(lp18
g2
atp19
a(I30
I255
I175
(lp20
g2
atp21
a(I30
I255
I155
(lp22
g2
atp23
a(I30
I255
I116
(lp24
S'green'
p25
atp26
a(I30
I255
I164
(lp27
g2
atp28
a(I30
I230
I164
(lp29
g2
atp30
a(I30
I230
I139
(lp31
g25
atp32
a(I30
I230
I186
(lp33
g2
atp34
a(I30
I230
I211
(lp35
g2
atp36
a(I55
I183
I211
(lp37
S'blue'
p38
atp39
a(I55
I183
I233
(lp40
g38
atp41
a(I55
I183
I255
(lp42
g38
atp43
a(I55
I227
I236
(lp44
g2
atp45
a.