(lp0
(I148
I2
I38
(lp1
S'red'
p2
atp3
a(I221
I216
I249
(lp4
S'white'
p5
aS'gray'
p6
atp7
a(I157
I110
I105
(lp8
S'brown'
p9
atp10
a(I63
I14
I118
(lp11
S'violet'
p12
atp13
a(I117
I118
I148
(lp14
g6
atp15
a(I132
I129
I43
(lp16
S'green'
p17
atp18
a(I153
I13
I140
(lp19
g12
atp20
a(I141
I255
I73
(lp21
g17
atp22
a(I120
I142
I52
(lp23
g17
atp24
a(I229
I249
I187
(lp25
g5
atp26
a(I227
I83
I61
(lp27
S'orange'
p28
atp29
a(I115
I103
I129
(lp30
g6
atp31
a(I166
I252
I19
(lp32
S'yellow'
p33
ag17
atp34
a(I64
I241
I214
(lp35
S'cyan'
p36
atp37
a(I19
I213
I242
(lp38
g36
atp39
a(I189
I31
I171
(lp40
g12
atp41
a(I85
I246
I185
(lp42
g36
atp43
a(I115
I2
I137
(lp44
g12
atp45
a(I176
I86
I210
(lp46
g12
atp47
a(I246
I216
I155
(lp48
tp49
a(I244
I49
I184
(lp50
S'pink'
p51
atp52
a(I8
I66
I65
(lp53
S'blue'
p54
atp55
a(I202
I233
I6
(lp56
g33
atp57
a(I216
I62
I131
(lp58
g51
atp59
a(I17
I206
I134
(lp60
g17
ag36
atp61
a(I239
I22
I50
(lp62
g2
atp63
a(I237
I230
I144
(lp64
tp65
a(I95
I240
I110
(lp66
g17
atp67
a(I169
I173
I61
(lp68
g9
atp69
a(I154
I192
I64
(lp70
g17
atp71
a(I150
I28
I106
(lp72
g12
atp73
a(I44
I90
I156
(lp74
g54
atp75
a(I244
I103
I104
(lp76
g2
atp77
a(I186
I146
I36
(lp78
g9
atp79
a(I143
I219
I62
(lp80
g17
atp81
a(I135
I246
I76
(lp82
g17
atp83
a(I85
I110
I250
(lp84
g54
atp85
a(I211
I14
I29
(lp86
g2
atp87
a(I143
I231
I131
(lp88
g17
atp89
a(I108
I171
I152
(lp90
g54
ag6
atp91
a(I38
I14
I175
(lp92
g54
atp93
a(I225
I65
I97
(lp94
g2
atp95
a(I200
I189
I15
(lp96
g33
atp97
a(I5
I59
I85
(lp98
g54
atp99
a(I245
I179
I236
(lp100
g51
atp101
a(I154
I193
I233
(lp102
g54
atp103
a(I203
I158
I100
(lp104
g9
atp105
a(I239
I203
I243
(lp106
g51
atp107
a(I14
I137
I133
(lp108
g36
atp109
a(I216
I20
I65
(lp110
g2
atp111
a(I135
I1
I115
(lp112
g12
atp113
a(I11
I159
I28
(lp114
g17
atp115
a(I148
I72
I252
(lp116
g54
ag12
atp117
a(I165
I24
I247
(lp118
g12
atp119
a(I43
I48
I85
(lp120
g54
atp121
a(I90
I34
I243
(lp122
g54
ag12
atp123
a(I55
I244
I251
(lp124
g36
atp125
a(I72
I8
I204
(lp126
g54
atp127
a(I161
I136
I226
(lp128
g6
atp129
a(I105
I71
I27
(lp130
g9
atp131
a(I117
I219
I227
(lp132
g54
ag36
atp133
a(I94
I179
I29
(lp134
g17
atp135
a(I115
I78
I214
(lp136
g54
ag12
atp137
a(I68
I64
I254
(lp138
g54
atp139
a(I2
I48
I153
(lp140
g54
atp141
a.