(lp0
(I55
I114
I111
(lp1
S'cyan'
p2
atp3
a(I55
I97
I111
(lp4
S'blue'
p5
ag2
atp6
a(I55
I83
I111
(lp7
g5
atp8
a(I55
I61
I111
(lp9
g5
atp10
a(I55
I61
I91
(lp11
g5
aS'gray'
p12
atp13
a(I55
I61
I67
(lp14
g12
atp15
a(I58
I119
I86
(lp16
S'green'
p17
atp18
a(I58
I103
I86
(lp19
g17
ag2
atp20
a(I58
I94
I86
(lp21
g2
ag12
atp22
a(I58
I86
I86
(lp23
g12
atp24
a(I58
I78
I75
(lp25
g12
atp26
a(I58
I58
I75
(lp27
g5
ag12
atp28
a(I58
I58
I67
(lp29
g12
atp30
a(I58
I58
I53
(lp31
g12
atp32
a(I33
I58
I58
(lp33
S'black'
p34
atp35
a(I33
I42
I42
(lp36
g34
atp37
a(I75
I42
I22
(lp38
S'brown'
p39
atp40
a(I75
I58
I22
(lp41
g39
atp42
a(I39
I36
I22
(lp43
g34
atp44
a(I30
I36
I22
(lp45
g34
atp46
a(I17
I25
I22
(lp47
g34
atp48
a(I17
I17
I11
(lp49
g34
atp50
a.