(lp0
(I148
I2
I38
(lp1
S'red'
p2
atp3
a(I221
I216
I249
(lp4
S'white'
p5
aS'gray'
p6
atp7
a(I157
I110
I105
(lp8
S'brown'
p9
atp10
a(I63
I14
I118
(lp11
S'violet'
p12
atp13
a(I117
I118
I148
(lp14
g6
atp15
a(I132
I129
I43
(lp16
S'green'
p17
atp18
a(I153
I13
I140
(lp19
g12
atp20
a(I141
I255
I73
(lp21
g17
atp22
a(I120
I142
I52
(lp23
g17
atp24
a(I229
I249
I187
(lp25
g5
atp26
a(I227
I83
I61
(lp27
S'orange'
p28
atp29
a(I115
I103
I129
(lp30
g6
atp31
a(I166
I252
I19
(lp32
S'yellow'
p33
ag17
atp34
a(I64
I241
I214
(lp35
S'cyan'
p36
atp37
a(I19
I213
I242
(lp38
g36
atp39
a(I189
I31
I171
(lp40
g12
atp41
a(I85
I246
I185
(lp42
g36
atp43
a(I115
I2
I137
(lp44
g12
atp45
a(I176
I86
I210
(lp46
g12
atp47
a(I246
I216
I155
(lp48
S'tan'
p49
atp50
a(I244
I49
I184
(lp51
S'pink'
p52
atp53
a(I8
I66
I65
(lp54
S'blue'
p55
atp56
a(I202
I233
I6
(lp57
g33
atp58
a(I216
I62
I131
(lp59
g52
atp60
a(I17
I206
I134
(lp61
g17
ag36
atp62
a(I239
I22
I50
(lp63
g2
atp64
a(I237
I230
I144
(lp65
g49
atp66
a(I95
I240
I110
(lp67
g17
atp68
a(I169
I173
I61
(lp69
g9
atp70
a(I154
I192
I64
(lp71
g17
atp72
a(I150
I28
I106
(lp73
g12
atp74
a(I44
I90
I156
(lp75
g55
atp76
a(I244
I103
I104
(lp77
g2
atp78
a(I186
I146
I36
(lp79
g9
atp80
a(I143
I219
I62
(lp81
g17
atp82
a(I135
I246
I76
(lp83
g17
atp84
a(I85
I110
I250
(lp85
g55
atp86
a(I211
I14
I29
(lp87
g2
atp88
a(I143
I231
I131
(lp89
g17
atp90
a(I108
I171
I152
(lp91
g55
ag6
atp92
a(I38
I14
I175
(lp93
g55
atp94
a(I225
I65
I97
(lp95
g2
atp96
a(I200
I189
I15
(lp97
g33
atp98
a(I5
I59
I85
(lp99
g55
atp100
a(I245
I179
I236
(lp101
g52
atp102
a(I154
I193
I233
(lp103
g55
atp104
a(I203
I158
I100
(lp105
g9
atp106
a(I239
I203
I243
(lp107
g52
atp108
a(I14
I137
I133
(lp109
g36
atp110
a(I216
I20
I65
(lp111
g2
atp112
a(I135
I1
I115
(lp113
g12
atp114
a(I11
I159
I28
(lp115
g17
atp116
a(I148
I72
I252
(lp117
g55
ag12
atp118
a(I165
I24
I247
(lp119
g12
atp120
a(I43
I48
I85
(lp121
g55
atp122
a(I90
I34
I243
(lp123
g55
ag12
atp124
a(I55
I244
I251
(lp125
g36
atp126
a(I72
I8
I204
(lp127
g55
atp128
a(I161
I136
I226
(lp129
g6
atp130
a(I105
I71
I27
(lp131
g9
atp132
a(I117
I219
I227
(lp133
g55
ag36
atp134
a(I94
I179
I29
(lp135
g17
atp136
a(I115
I78
I214
(lp137
g55
ag12
atp138
a(I68
I64
I254
(lp139
g55
atp140
a(I2
I48
I153
(lp141
g55
atp142
a.