(lp0
(I255
I23
I209
(lp1
S'pink'
p2
atp3
a(I255
I23
I152
(lp4
g2
atp5
a(I255
I23
I30
(lp6
S'red'
p7
atp8
a(I255
I23
I100
(lp9
g7
ag2
atp10
a(I255
I23
I136
(lp11
g2
atp12
a(I255
I23
I158
(lp13
g2
atp14
a(I255
I23
I177
(lp15
g2
atp16
a(I255
I23
I216
(lp17
g2
atp18
a(I255
I23
I241
(lp19
g2
atp20
a(I255
I83
I241
(lp21
g2
atp22
a(I255
I83
I191
(lp23
g2
atp24
a(I255
I83
I165
(lp25
g2
atp26
a(I255
I83
I136
(lp27
g7
ag2
atp28
a(I255
I83
I86
(lp29
g7
atp30
a(I211
I100
I208
(lp31
S'violet'
p32
atp33
a(I211
I0
I200
(lp34
g2
atp35
a(I211
I0
I78
(lp36
g7
atp37
a(I211
I28
I103
(lp38
g2
atp39
a(I211
I28
I158
(lp40
g2
atp41
a(I161
I28
I255
(lp42
g32
atp43
a(I130
I28
I255
(lp44
S'blue'
p45
ag32
atp46
a(I80
I28
I255
(lp47
g45
atp48
a(I80
I28
I216
(lp49
g45
atp50
a(I125
I28
I216
(lp51
g45
ag32
atp52
a(I155
I28
I216
(lp53
g32
atp54
a(I219
I28
I216
(lp55
g2
atp56
a(I219
I100
I216
(lp57
g2
atp58
a(I219
I100
I172
(lp59
g2
atp60
a(I211
I100
I89
(lp61
g7
atp62
a(I211
I100
I47
(lp63
S'orange'
p64
atp65
a(I205
I100
I0
(lp66
g64
aS'brown'
p67
atp68
a(I175
I100
I28
(lp69
g64
ag67
atp70
a(I155
I100
I67
(lp71
g67
atp72
a(I236
I69
I119
(lp73
g2
atp74
a(I255
I69
I119
(lp75
g2
atp76
a(I255
I69
I152
(lp77
g2
atp78
a(I255
I89
I152
(lp79
g2
atp80
a(I255
I108
I152
(lp81
g2
atp82
a(I255
I108
I125
(lp83
g7
ag2
atp84
a(I255
I108
I100
(lp85
g7
atp86
a.