(lp0
(I183
I243
I74
(lp1
S'yellow'
p2
aS'green'
p3
atp4
a(I59
I180
I245
(lp5
S'cyan'
p6
atp7
a(I176
I176
I225
(lp8
S'gray'
p9
atp10
a(I123
I43
I66
(lp11
S'red'
p12
aS'violet'
p13
atp14
a(I71
I8
I93
(lp15
g13
atp16
a(I14
I165
I149
(lp17
S'blue'
p18
ag6
atp19
a(I103
I186
I97
(lp20
g3
atp21
a(I150
I2
I44
(lp22
g12
atp23
a(I178
I14
I27
(lp24
g12
atp25
a(I96
I130
I156
(lp26
g18
ag9
atp27
a(I220
I155
I125
(lp28
S'pink'
p29
aS'tan'
p30
atp31
a(I153
I111
I163
(lp32
g18
ag13
atp33
a(I22
I21
I179
(lp34
g18
atp35
a(I108
I32
I162
(lp36
g13
atp37
a(I143
I22
I70
(lp38
g12
ag13
atp39
a(I107
I30
I130
(lp40
g13
atp41
a(I71
I171
I50
(lp42
g3
atp43
a(I79
I241
I186
(lp44
g6
atp45
a(I114
I208
I58
(lp46
g3
atp47
a(I116
I180
I201
(lp48
g18
atp49
a(I70
I212
I156
(lp50
g6
atp51
a(I37
I233
I82
(lp52
g3
atp53
a(I212
I2
I161
(lp54
g29
atp55
a(I20
I102
I195
(lp56
g18
atp57
a(I226
I36
I71
(lp58
g12
atp59
a(I188
I237
I12
(lp60
g2
atp61
a(I222
I117
I251
(lp62
g29
atp63
a(I107
I254
I50
(lp64
g3
atp65
a(I112
I130
I222
(lp66
g18
ag9
atp67
a(I255
I136
I227
(lp68
g29
atp69
a(I225
I79
I94
(lp70
g12
atp71
a(I39
I90
I44
(lp72
g3
atp73
a(I27
I232
I184
(lp74
g6
atp75
a(I179
I20
I19
(lp76
g12
atp77
a(I242
I117
I142
(lp78
g29
atp79
a(I85
I139
I118
(lp80
g9
atp81
a(I21
I196
I174
(lp82
g6
atp83
a(I103
I152
I99
(lp84
g3
ag9
atp85
a(I116
I38
I97
(lp86
g13
atp87
a(I42
I100
I171
(lp88
g18
atp89
a(I1
I98
I29
(lp90
g3
atp91
a(I26
I237
I61
(lp92
g3
atp93
a(I153
I96
I80
(lp94
S'brown'
p95
atp96
a(I0
I20
I11
(lp97
S'black'
p98
atp99
a(I106
I72
I238
(lp100
g18
ag13
atp101
a(I60
I138
I9
(lp102
g3
atp103
a(I123
I206
I165
(lp104
g6
atp105
a(I16
I105
I13
(lp106
g3
atp107
a(I251
I178
I209
(lp108
g29
atp109
a(I113
I106
I200
(lp110
g18
ag13
atp111
a(I38
I16
I79
(lp112
g18
ag13
atp113
a(I250
I93
I7
(lp114
S'orange'
p115
atp116
a(I203
I30
I55
(lp117
g12
atp118
a(I206
I160
I158
(lp119
g29
ag9
atp120
a(I229
I241
I38
(lp121
g2
atp122
a(I114
I222
I138
(lp123
g3
ag6
atp124
a(I105
I34
I221
(lp125
g18
ag13
atp126
a(I61
I105
I45
(lp127
g3
atp128
a(I66
I18
I69
(lp129
g13
atp130
a(I183
I212
I236
(lp131
g18
ag9
atp132
a(I67
I93
I165
(lp133
g18
atp134
a(I121
I147
I160
(lp135
g18
ag9
atp136
a(I232
I72
I163
(lp137
g29
atp138
a(I102
I78
I75
(lp139
g95
atp140
a(I155
I83
I60
(lp141
g95
atp142
a(I160
I232
I84
(lp143
g3
atp144
a(I206
I211
I27
(lp145
g2
atp146
a(I215
I228
I11
(lp147
g2
atp148
a(I254
I105
I83
(lp149
g12
ag115
atp150
a(I216
I198
I10
(lp151
g2
atp152
a(I79
I135
I94
(lp153
g6
atp154
a(I116
I175
I190
(lp155
g18
atp156
a(I96
I134
I128
(lp157
g9
atp158
a(I184
I106
I161
(lp159
g13
atp160
a(I128
I95
I74
(lp161
g95
atp162
a(I11
I177
I196
(lp163
g6
atp164
a(I126
I159
I169
(lp165
g18
ag9
atp166
a(I194
I38
I108
(lp167
g12
ag13
atp168
a(I237
I73
I153
(lp169
g29
atp170
a(I224
I46
I166
(lp171
g29
atp172
a(I143
I104
I83
(lp173
g95
atp174
a(I159
I235
I236
(lp175
g6
atp176
a(I0
I87
I90
(lp177
g18
ag6
atp178
a(I159
I149
I93
(lp179
g9
ag30
atp180
a(I32
I37
I28
(lp181
g98
atp182
a(I102
I161
I253
(lp183
g18
atp184
a(I164
I208
I253
(lp185
g6
atp186
a(I104
I114
I24
(lp187
g3
atp188
a(I100
I151
I120
(lp189
g6
ag9
atp190
a(I29
I252
I79
(lp191
g3
atp192
a(I208
I114
I205
(lp193
g29
atp194
a(I92
I60
I93
(lp195
g13
atp196
a(I160
I135
I43
(lp197
g95
atp198
a(I163
I251
I115
(lp199
g3
atp200
a(I89
I110
I212
(lp201
g18
atp202
a(I164
I177
I103
(lp203
g9
ag30
atp204
a(I117
I10
I192
(lp205
g13
atp206
a(I199
I90
I16
(lp207
g115
ag95
atp208
a(I150
I193
I68
(lp209
g3
atp210
a(I42
I246
I225
(lp211
g6
atp212
a(I181
I122
I169
(lp213
g13
atp214
a(I73
I208
I21
(lp215
g3
atp216
a(I230
I103
I162
(lp217
g29
atp218
a(I120
I21
I127
(lp219
g13
atp220
a(I241
I46
I184
(lp221
g29
atp222
a(I35
I50
I194
(lp223
g18
atp224
a(I96
I243
I236
(lp225
g6
atp226
a(I38
I211
I230
(lp227
g6
atp228
a(I136
I105
I149
(lp229
g13
ag9
atp230
a(I213
I160
I40
(lp231
g2
ag30
atp232
a(I67
I50
I127
(lp233
g18
ag13
atp234
a(I10
I8
I55
(lp235
g18
atp236
a(I163
I31
I140
(lp237
g13
atp238
a(I153
I175
I150
(lp239
g9
atp240
a(I20
I123
I224
(lp241
g18
atp242
a(I238
I146
I86
(lp243
g115
ag30
atp244
a(I53
I140
I156
(lp245
g18
ag6
atp246
a(I125
I197
I188
(lp247
g6
atp248
a(I226
I169
I167
(lp249
g29
atp250
a(I161
I99
I227
(lp251
g13
atp252
a(I55
I62
I165
(lp253
g18
atp254
a(I200
I153
I153
(lp255
g13
ag9
atp256
a(I15
I64
I243
(lp257
g18
atp258
a(I32
I52
I3
(lp259
g3
atp260
a(I210
I251
I125
(lp261
g2
aS'white'
p262
atp263
a(I174
I15
I138
(lp264
g13
ag29
atp265
a(I110
I196
I186
(lp266
g6
atp267
a(I190
I121
I55
(lp268
g95
atp269
a(I43
I66
I221
(lp270
g18
atp271
a(I222
I95
I173
(lp272
g29
atp273
a(I136
I42
I194
(lp274
g13
atp275
a(I31
I170
I34
(lp276
g3
atp277
a(I179
I139
I221
(lp278
g13
atp279
a(I254
I44
I114
(lp280
g12
ag29
atp281
a(I53
I196
I232
(lp282
g6
atp283
a(I53
I119
I1
(lp284
g3
atp285
a(I72
I34
I187
(lp286
g18
ag13
atp287
a(I82
I204
I112
(lp288
g3
atp289
a(I178
I73
I32
(lp290
g95
atp291
a(I177
I226
I120
(lp292
g3
atp293
a(I31
I159
I63
(lp294
g3
atp295
a(I143
I216
I139
(lp296
g3
atp297
a(I229
I69
I9
(lp298
g115
atp299
a(I49
I64
I247
(lp300
g18
atp301
a(I205
I234
I113
(lp302
g3
ag262
atp303
a(I167
I28
I174
(lp304
g13
atp305
a(I192
I153
I0
(lp306
g2
ag95
atp307
a(I136
I128
I152
(lp308
g9
atp309
a(I26
I72
I138
(lp310
g18
atp311
a(I56
I179
I253
(lp312
g6
atp313
a.