(lp0
(I11
I252
I17
(lp1
S'green'
p2
atp3
a(I11
I139
I17
(lp4
g2
atp5
a(I11
I80
I17
(lp6
g2
atp7
a(I11
I55
I17
(lp8
g2
atp9
a(I11
I42
I17
(lp10
g2
atp11
a(I11
I30
I17
(lp12
S'black'
p13
aS'gray'
p14
atp15
a(I11
I14
I17
(lp16
g13
atp17
a(I11
I0
I17
(lp18
S'violet'
p19
ag13
atp20
a(I11
I58
I8
(lp21
g2
atp22
a(I11
I33
I8
(lp23
g2
atp24
a(I11
I19
I8
(lp25
g13
atp26
a(I11
I6
I8
(lp27
g13
atp28
a(I3
I78
I8
(lp29
g2
atp30
a(I3
I53
I8
(lp31
g2
atp32
a(I3
I33
I8
(lp33
g2
atp34
a(I3
I17
I8
(lp35
g13
atp36
a(I3
I3
I8
(lp37
g13
atp38
a(I33
I83
I8
(lp39
g2
atp40
a(I33
I64
I8
(lp41
g2
atp42
a(I33
I33
I8
(lp43
S'brown'
p44
atp45
a(I55
I30
I8
(lp46
g44
atp47
a(I55
I50
I8
(lp48
g44
atp49
a(I55
I58
I8
(lp50
g2
ag44
atp51
a(I30
I114
I30
(lp52
g2
atp53
a(I30
I83
I30
(lp54
g2
atp55
a(I30
I61
I30
(lp56
g2
atp57
a(I30
I0
I30
(lp58
g19
atp59
a(I30
I14
I30
(lp60
g19
atp61
a(I30
I33
I30
(lp62
g13
ag14
atp63
a(I22
I44
I14
(lp64
g2
atp65
a(I22
I25
I14
(lp66
g13
atp67
a(I44
I141
I114
(lp68
S'cyan'
p69
atp70
a(I44
I141
I83
(lp71
g2
ag69
atp72
a(I44
I141
I44
(lp73
g2
atp74
a(I44
I103
I44
(lp75
g2
atp76
a(I44
I75
I44
(lp77
g2
ag14
atp78
a(I44
I61
I44
(lp79
g14
atp80
a(I44
I50
I44
(lp81
g14
atp82
a.