(lp0
(I85
I164
I50
(lp1
S'green'
p2
atp3
a(I85
I122
I50
(lp4
g2
atp5
a(I85
I105
I50
(lp6
g2
atp7
a(I85
I103
I50
(lp8
g2
aS'gray'
p9
atp10
a(I85
I78
I50
(lp11
g9
atp12
a(I85
I33
I50
(lp13
S'violet'
p14
atp15
a(I85
I19
I50
(lp16
g14
atp17
a(I85
I0
I50
(lp18
g14
atp19
a(I85
I144
I50
(lp20
g2
atp21
a(I50
I144
I50
(lp22
g2
atp23
a(I50
I103
I50
(lp24
g2
atp25
a(I50
I78
I50
(lp26
g2
ag9
atp27
a(I50
I53
I50
(lp28
g9
atp29
a(I50
I28
I50
(lp30
g14
atp31
a(I47
I103
I36
(lp32
g2
atp33
a(I47
I75
I36
(lp34
g2
atp35
a(I47
I50
I36
(lp36
g9
atp37
a(I47
I36
I36
(lp38
g9
atp39
a(I47
I11
I36
(lp40
g14
atp41
a(I47
I0
I36
(lp42
g14
atp43
a(I25
I78
I25
(lp44
g2
atp45
a(I25
I50
I25
(lp46
g2
atp47
a(I25
I28
I25
(lp48
g9
atp49
a(I25
I6
I25
(lp50
g14
atp51
a.