(lp0
(I21
I116
I120
(lp1
S'cyan'
p2
atp3
a(I21
I94
I94
(lp4
g2
atp5
a(I21
I78
I103
(lp6
S'blue'
p7
atp8
a(I21
I128
I103
(lp9
S'green'
p10
ag2
atp11
a(I21
I128
I89
(lp12
g10
atp13
a(I21
I91
I89
(lp14
g2
atp15
a(I21
I78
I80
(lp16
g7
atp17
a(I21
I61
I61
(lp18
g7
atp19
a(I21
I53
I36
(lp20
g10
atp21
a(I21
I33
I36
(lp22
S'black'
p23
atp24
a(I21
I19
I14
(lp25
g23
atp26
a(I36
I89
I89
(lp27
g7
ag2
atp28
a(I36
I119
I116
(lp29
g2
atp30
a(I36
I116
I150
(lp31
g7
atp32
a(I36
I158
I150
(lp33
g2
atp34
a(I36
I172
I175
(lp35
g2
atp36
a(I158
I172
I175
(lp37
S'gray'
p38
atp39
a.