(lp0
(I230
I44
I42
(lp1
S'red'
p2
atp3
a(I230
I83
I42
(lp4
S'orange'
p5
atp6
a(I230
I108
I42
(lp7
g5
atp8
a(I230
I150
I42
(lp9
g5
aS'yellow'
p10
atp11
a(I230
I188
I42
(lp12
g10
atp13
a(I230
I211
I42
(lp14
g10
atp15
a(I230
I200
I42
(lp16
g10
atp17
a(I230
I222
I42
(lp18
g10
atp19
a(I230
I97
I28
(lp20
g5
atp21
a(I230
I42
I28
(lp22
g2
atp23
a(I230
I22
I28
(lp24
g2
atp25
a(I230
I33
I50
(lp26
g2
atp27
a(I230
I33
I72
(lp28
g2
aS'pink'
p29
atp30
a(I230
I33
I100
(lp31
g29
atp32
a(I230
I33
I133
(lp33
g29
atp34
a(I230
I47
I72
(lp35
g2
atp36
a(I230
I47
I39
(lp37
g2
atp38
a(I191
I47
I39
(lp39
g2
atp40
a(I191
I75
I39
(lp41
S'brown'
p42
atp43
a(I191
I133
I39
(lp44
S'tan'
p45
atp46
a(I205
I47
I39
(lp47
g2
atp48
a(I205
I36
I39
(lp49
g2
atp50
a(I205
I22
I39
(lp51
g2
atp52
a(I205
I164
I83
(lp53
g45
atp54
a(I205
I164
I111
(lp55
S'gray'
p56
ag45
atp57
a(I205
I164
I144
(lp58
g56
atp59
a(I205
I177
I183
(lp60
g56
atp61
a(I205
I194
I183
(lp62
g56
atp63
a(I205
I64
I67
(lp64
g2
atp65
a(I164
I64
I67
(lp66
g2
atp67
a(I125
I64
I67
(lp68
g2
aS'violet'
p69
ag42
atp70
a(I103
I78
I64
(lp71
g56
atp72
a(I144
I78
I28
(lp73
g42
atp74
a(I177
I78
I28
(lp75
g5
ag42
atp76
a(I208
I78
I28
(lp77
g5
atp78
a(I255
I78
I28
(lp79
g2
ag5
atp80
a(I255
I50
I28
(lp81
g2
atp82
a(I255
I33
I28
(lp83
g2
atp84
a(I255
I14
I28
(lp85
g2
atp86
a(I255
I166
I28
(lp87
g5
ag10
atp88
a(I255
I194
I28
(lp89
g10
atp90
a(I255
I202
I28
(lp91
g10
atp92
a(I255
I202
I64
(lp93
g10
atp94
a(I255
I158
I64
(lp95
g5
atp96
a(I255
I128
I64
(lp97
g2
ag5
atp98
a(I255
I69
I64
(lp99
g2
atp100
a(I255
I39
I64
(lp101
g2
atp102
a(I255
I39
I133
(lp103
g29
atp104
a.