(lp0
(I230
I44
I42
(lp1
S'red'
p2
atp3
a(I230
I83
I42
(lp4
S'orange'
p5
atp6
a(I230
I108
I42
(lp7
g5
atp8
a(I230
I150
I42
(lp9
g5
aS'yellow'
p10
atp11
a(I230
I188
I42
(lp12
g10
atp13
a(I230
I211
I42
(lp14
g10
atp15
a(I230
I200
I42
(lp16
g10
atp17
a(I230
I222
I42
(lp18
g10
atp19
a(I230
I97
I28
(lp20
g5
atp21
a(I230
I42
I28
(lp22
g2
atp23
a(I230
I22
I28
(lp24
g2
atp25
a(I230
I33
I50
(lp26
g2
atp27
a(I230
I33
I72
(lp28
g2
aS'pink'
p29
atp30
a(I230
I33
I100
(lp31
g29
atp32
a(I230
I33
I133
(lp33
g29
atp34
a(I230
I47
I72
(lp35
g2
atp36
a(I230
I47
I39
(lp37
g2
atp38
a(I191
I47
I39
(lp39
g2
atp40
a(I191
I75
I39
(lp41
S'brown'
p42
atp43
a(I191
I133
I39
(lp44
tp45
a(I205
I47
I39
(lp46
g2
atp47
a(I205
I36
I39
(lp48
g2
atp49
a(I205
I22
I39
(lp50
g2
atp51
a(I205
I164
I83
(lp52
tp53
a(I205
I164
I111
(lp54
S'gray'
p55
atp56
a(I205
I164
I144
(lp57
g55
atp58
a(I205
I177
I183
(lp59
g55
atp60
a(I205
I194
I183
(lp61
g55
atp62
a(I205
I64
I67
(lp63
g2
atp64
a(I164
I64
I67
(lp65
g2
atp66
a(I125
I64
I67
(lp67
g2
aS'violet'
p68
ag42
atp69
a(I103
I78
I64
(lp70
g55
atp71
a(I144
I78
I28
(lp72
g42
atp73
a(I177
I78
I28
(lp74
g5
ag42
atp75
a(I208
I78
I28
(lp76
g5
atp77
a(I255
I78
I28
(lp78
g2
ag5
atp79
a(I255
I50
I28
(lp80
g2
atp81
a(I255
I33
I28
(lp82
g2
atp83
a(I255
I14
I28
(lp84
g2
atp85
a(I255
I166
I28
(lp86
g5
ag10
atp87
a(I255
I194
I28
(lp88
g10
atp89
a(I255
I202
I28
(lp90
g10
atp91
a(I255
I202
I64
(lp92
g10
atp93
a(I255
I158
I64
(lp94
g5
atp95
a(I255
I128
I64
(lp96
g2
ag5
atp97
a(I255
I69
I64
(lp98
g2
atp99
a(I255
I39
I64
(lp100
g2
atp101
a(I255
I39
I133
(lp102
g29
atp103
a.