(lp0
(I183
I243
I74
(lp1
S'yellow'
p2
aS'green'
p3
atp4
a(I59
I180
I245
(lp5
S'cyan'
p6
atp7
a(I176
I176
I225
(lp8
S'gray'
p9
atp10
a(I123
I43
I66
(lp11
S'red'
p12
aS'violet'
p13
atp14
a(I71
I8
I93
(lp15
g13
atp16
a(I14
I165
I149
(lp17
S'blue'
p18
ag6
atp19
a(I103
I186
I97
(lp20
g3
atp21
a(I150
I2
I44
(lp22
g12
atp23
a(I178
I14
I27
(lp24
g12
atp25
a(I96
I130
I156
(lp26
g18
ag9
atp27
a(I220
I155
I125
(lp28
S'pink'
p29
atp30
a(I153
I111
I163
(lp31
g18
ag13
atp32
a(I22
I21
I179
(lp33
g18
atp34
a(I108
I32
I162
(lp35
g13
atp36
a(I143
I22
I70
(lp37
g12
ag13
atp38
a(I107
I30
I130
(lp39
g13
atp40
a(I71
I171
I50
(lp41
g3
atp42
a(I79
I241
I186
(lp43
g6
atp44
a(I114
I208
I58
(lp45
g3
atp46
a(I116
I180
I201
(lp47
g18
atp48
a(I70
I212
I156
(lp49
g6
atp50
a(I37
I233
I82
(lp51
g3
atp52
a(I212
I2
I161
(lp53
g29
atp54
a(I20
I102
I195
(lp55
g18
atp56
a(I226
I36
I71
(lp57
g12
atp58
a(I188
I237
I12
(lp59
g2
atp60
a(I222
I117
I251
(lp61
g29
atp62
a(I107
I254
I50
(lp63
g3
atp64
a(I112
I130
I222
(lp65
g18
ag9
atp66
a(I255
I136
I227
(lp67
g29
atp68
a(I225
I79
I94
(lp69
g12
atp70
a(I39
I90
I44
(lp71
g3
atp72
a(I27
I232
I184
(lp73
g6
atp74
a(I179
I20
I19
(lp75
g12
atp76
a(I242
I117
I142
(lp77
g29
atp78
a(I85
I139
I118
(lp79
g9
atp80
a(I21
I196
I174
(lp81
g6
atp82
a(I103
I152
I99
(lp83
g3
ag9
atp84
a(I116
I38
I97
(lp85
g13
atp86
a(I42
I100
I171
(lp87
g18
atp88
a(I1
I98
I29
(lp89
g3
atp90
a(I26
I237
I61
(lp91
g3
atp92
a(I153
I96
I80
(lp93
S'brown'
p94
atp95
a(I0
I20
I11
(lp96
S'black'
p97
atp98
a(I106
I72
I238
(lp99
g18
ag13
atp100
a(I60
I138
I9
(lp101
g3
atp102
a(I123
I206
I165
(lp103
g6
atp104
a(I16
I105
I13
(lp105
g3
atp106
a(I251
I178
I209
(lp107
g29
atp108
a(I113
I106
I200
(lp109
g18
ag13
atp110
a(I38
I16
I79
(lp111
g18
ag13
atp112
a(I250
I93
I7
(lp113
S'orange'
p114
atp115
a(I203
I30
I55
(lp116
g12
atp117
a(I206
I160
I158
(lp118
g29
ag9
atp119
a(I229
I241
I38
(lp120
g2
atp121
a(I114
I222
I138
(lp122
g3
ag6
atp123
a(I105
I34
I221
(lp124
g18
ag13
atp125
a(I61
I105
I45
(lp126
g3
atp127
a(I66
I18
I69
(lp128
g13
atp129
a(I183
I212
I236
(lp130
g18
ag9
atp131
a(I67
I93
I165
(lp132
g18
atp133
a(I121
I147
I160
(lp134
g18
ag9
atp135
a(I232
I72
I163
(lp136
g29
atp137
a(I102
I78
I75
(lp138
g94
atp139
a(I155
I83
I60
(lp140
g94
atp141
a(I160
I232
I84
(lp142
g3
atp143
a(I206
I211
I27
(lp144
g2
atp145
a(I215
I228
I11
(lp146
g2
atp147
a(I254
I105
I83
(lp148
g12
ag114
atp149
a(I216
I198
I10
(lp150
g2
atp151
a(I79
I135
I94
(lp152
g6
atp153
a(I116
I175
I190
(lp154
g18
atp155
a(I96
I134
I128
(lp156
g9
atp157
a(I184
I106
I161
(lp158
g13
atp159
a(I128
I95
I74
(lp160
g94
atp161
a(I11
I177
I196
(lp162
g6
atp163
a(I126
I159
I169
(lp164
g18
ag9
atp165
a(I194
I38
I108
(lp166
g12
ag13
atp167
a(I237
I73
I153
(lp168
g29
atp169
a(I224
I46
I166
(lp170
g29
atp171
a(I143
I104
I83
(lp172
g94
atp173
a(I159
I235
I236
(lp174
g6
atp175
a(I0
I87
I90
(lp176
g18
ag6
atp177
a(I159
I149
I93
(lp178
g9
atp179
a(I32
I37
I28
(lp180
g97
atp181
a(I102
I161
I253
(lp182
g18
atp183
a(I164
I208
I253
(lp184
g6
atp185
a(I104
I114
I24
(lp186
g3
atp187
a(I100
I151
I120
(lp188
g6
ag9
atp189
a(I29
I252
I79
(lp190
g3
atp191
a(I208
I114
I205
(lp192
g29
atp193
a(I92
I60
I93
(lp194
g13
atp195
a(I160
I135
I43
(lp196
g94
atp197
a(I163
I251
I115
(lp198
g3
atp199
a(I89
I110
I212
(lp200
g18
atp201
a(I164
I177
I103
(lp202
g9
atp203
a(I117
I10
I192
(lp204
g13
atp205
a(I199
I90
I16
(lp206
g114
ag94
atp207
a(I150
I193
I68
(lp208
g3
atp209
a(I42
I246
I225
(lp210
g6
atp211
a(I181
I122
I169
(lp212
g13
atp213
a(I73
I208
I21
(lp214
g3
atp215
a(I230
I103
I162
(lp216
g29
atp217
a(I120
I21
I127
(lp218
g13
atp219
a(I241
I46
I184
(lp220
g29
atp221
a(I35
I50
I194
(lp222
g18
atp223
a(I96
I243
I236
(lp224
g6
atp225
a(I38
I211
I230
(lp226
g6
atp227
a(I136
I105
I149
(lp228
g13
ag9
atp229
a(I213
I160
I40
(lp230
g2
atp231
a(I67
I50
I127
(lp232
g18
ag13
atp233
a(I10
I8
I55
(lp234
g18
atp235
a(I163
I31
I140
(lp236
g13
atp237
a(I153
I175
I150
(lp238
g9
atp239
a(I20
I123
I224
(lp240
g18
atp241
a(I238
I146
I86
(lp242
g114
atp243
a(I53
I140
I156
(lp244
g18
ag6
atp245
a(I125
I197
I188
(lp246
g6
atp247
a(I226
I169
I167
(lp248
g29
atp249
a(I161
I99
I227
(lp250
g13
atp251
a(I55
I62
I165
(lp252
g18
atp253
a(I200
I153
I153
(lp254
g13
ag9
atp255
a(I15
I64
I243
(lp256
g18
atp257
a(I32
I52
I3
(lp258
g3
atp259
a(I210
I251
I125
(lp260
g2
aS'white'
p261
atp262
a(I174
I15
I138
(lp263
g13
ag29
atp264
a(I110
I196
I186
(lp265
g6
atp266
a(I190
I121
I55
(lp267
g94
atp268
a(I43
I66
I221
(lp269
g18
atp270
a(I222
I95
I173
(lp271
g29
atp272
a(I136
I42
I194
(lp273
g13
atp274
a(I31
I170
I34
(lp275
g3
atp276
a(I179
I139
I221
(lp277
g13
atp278
a(I254
I44
I114
(lp279
g12
ag29
atp280
a(I53
I196
I232
(lp281
g6
atp282
a(I53
I119
I1
(lp283
g3
atp284
a(I72
I34
I187
(lp285
g18
ag13
atp286
a(I82
I204
I112
(lp287
g3
atp288
a(I178
I73
I32
(lp289
g94
atp290
a(I177
I226
I120
(lp291
g3
atp292
a(I31
I159
I63
(lp293
g3
atp294
a(I143
I216
I139
(lp295
g3
atp296
a(I229
I69
I9
(lp297
g114
atp298
a(I49
I64
I247
(lp299
g18
atp300
a(I205
I234
I113
(lp301
g3
ag261
atp302
a(I167
I28
I174
(lp303
g13
atp304
a(I192
I153
I0
(lp305
g2
ag94
atp306
a(I136
I128
I152
(lp307
g9
atp308
a(I26
I72
I138
(lp309
g18
atp310
a(I56
I179
I253
(lp311
g6
atp312
a.