(lp0
(I11
I114
I43
(lp1
S'green'
p2
atp3
a(I188
I180
I22
(lp4
S'yellow'
p5
atp6
a(I99
I253
I239
(lp7
S'cyan'
p8
atp9
a(I182
I49
I203
(lp10
S'violet'
p11
atp12
a(I146
I19
I164
(lp13
g11
atp14
a(I79
I172
I113
(lp15
g2
atp16
a(I77
I92
I88
(lp17
S'gray'
p18
atp19
a(I53
I79
I73
(lp20
g18
atp21
a(I150
I112
I91
(lp22
g18
aS'brown'
p23
atp24
a(I173
I57
I217
(lp25
g11
atp26
a(I113
I44
I12
(lp27
g23
atp28
a(I232
I130
I39
(lp29
S'orange'
p30
atp31
a(I90
I217
I98
(lp32
g2
atp33
a(I139
I34
I43
(lp34
S'red'
p35
atp36
a(I89
I251
I158
(lp37
g8
atp38
a(I136
I42
I33
(lp39
g23
atp40
a(I32
I216
I145
(lp41
g8
atp42
a(I137
I126
I171
(lp43
S'blue'
p44
ag18
atp45
a(I9
I178
I99
(lp46
g2
atp47
a(I202
I97
I140
(lp48
S'pink'
p49
atp50
a(I72
I91
I126
(lp51
g44
atp52
a(I161
I68
I66
(lp53
g35
ag23
atp54
a(I0
I246
I1
(lp55
g2
atp56
a(I95
I241
I175
(lp57
g8
atp58
a(I21
I236
I9
(lp59
g2
atp60
a(I151
I164
I97
(lp61
g18
atp62
a(I37
I108
I153
(lp63
g44
atp64
a(I57
I11
I116
(lp65
g44
ag11
atp66
a(I103
I79
I51
(lp67
g23
atp68
a(I61
I204
I178
(lp69
g44
atp70
a(I192
I62
I98
(lp71
g35
ag11
atp72
a(I60
I157
I252
(lp73
g44
atp74
a(I56
I97
I29
(lp75
g2
atp76
a(I167
I0
I228
(lp77
g11
atp78
a(I217
I152
I241
(lp79
g11
ag49
atp80
a(I231
I198
I9
(lp81
g5
atp82
a(I0
I157
I150
(lp83
g8
atp84
a(I90
I235
I213
(lp85
g8
atp86
a(I245
I61
I41
(lp87
g35
ag30
atp88
a(I183
I64
I239
(lp89
g11
atp90
a(I62
I139
I118
(lp91
g8
atp92
a(I241
I186
I235
(lp93
g49
atp94
a(I175
I165
I28
(lp95
g5
ag2
atp96
a(I249
I142
I72
(lp97
g30
atp98
a(I90
I147
I106
(lp99
g2
ag18
atp100
a(I133
I3
I59
(lp101
g35
ag11
atp102
a(I98
I18
I218
(lp103
g44
ag11
atp104
a(I121
I123
I57
(lp105
g18
ag23
atp106
a(I45
I138
I61
(lp107
g2
atp108
a(I110
I133
I159
(lp109
g18
atp110
a(I50
I222
I111
(lp111
g2
atp112
a(I34
I233
I69
(lp113
g2
atp114
a(I83
I147
I191
(lp115
g44
atp116
a(I105
I182
I30
(lp117
g2
atp118
a(I44
I237
I62
(lp119
g2
atp120
a(I160
I134
I150
(lp121
g18
atp122
a(I28
I77
I60
(lp123
g8
atp124
a(I15
I101
I6
(lp125
g2
atp126
a(I99
I166
I48
(lp127
g2
atp128
a.