(lp0
(I11
I179
I60
(lp1
S'green'
p2
atp3
a(I204
I49
I72
(lp4
S'red'
p5
atp6
a(I46
I146
I40
(lp7
g2
atp8
a(I119
I138
I12
(lp9
g2
atp10
a(I0
I44
I104
(lp11
S'blue'
p12
atp13
a(I177
I187
I24
(lp14
S'yellow'
p15
ag2
atp16
a(I212
I131
I224
(lp17
S'pink'
p18
atp19
a(I197
I142
I113
(lp20
S'brown'
p21
atp22
a(I130
I153
I47
(lp23
g2
atp24
a(I240
I44
I207
(lp25
g18
atp26
a(I148
I83
I112
(lp27
S'violet'
p28
atp29
a(I190
I247
I185
(lp30
S'cyan'
p31
atp32
a(I68
I151
I164
(lp33
g12
ag31
atp34
a(I80
I224
I40
(lp35
g2
atp36
a(I153
I191
I93
(lp37
g2
atp38
a(I73
I193
I234
(lp39
g31
atp40
a(I243
I25
I0
(lp41
g5
atp42
a(I195
I212
I35
(lp43
g15
atp44
a(I137
I43
I25
(lp45
g21
atp46
a(I222
I69
I179
(lp47
g18
atp48
a(I183
I136
I128
(lp49
g21
atp50
a(I188
I23
I165
(lp51
g28
atp52
a(I242
I185
I106
(lp53
S'tan'
p54
atp55
a(I215
I109
I144
(lp56
g5
ag28
ag18
atp57
a(I21
I13
I224
(lp58
g12
atp59
a(I31
I156
I111
(lp60
g31
atp61
a(I132
I124
I172
(lp62
g12
aS'gray'
p63
atp64
a(I161
I127
I201
(lp65
g12
ag28
atp66
a(I43
I14
I194
(lp67
g12
atp68
a(I68
I141
I136
(lp69
g31
atp70
a(I145
I60
I3
(lp71
g21
atp72
a(I90
I3
I85
(lp73
g28
atp74
a(I250
I24
I224
(lp75
g18
atp76
a(I185
I98
I41
(lp77
g21
atp78
a(I217
I177
I152
(lp79
g63
ag54
atp80
a(I3
I83
I198
(lp81
g12
atp82
a(I89
I130
I185
(lp83
g12
atp84
a(I200
I200
I68
(lp85
g15
atp86
a(I97
I155
I171
(lp87
g31
atp88
a(I249
I57
I152
(lp89
g18
atp90
a(I240
I96
I44
(lp91
S'orange'
p92
atp93
a(I188
I59
I160
(lp94
g28
atp95
a(I200
I240
I186
(lp96
g31
atp97
a(I160
I136
I176
(lp98
g28
ag63
atp99
a(I91
I229
I240
(lp100
g31
atp101
a(I66
I83
I21
(lp102
g2
atp103
a(I144
I157
I236
(lp104
g12
atp105
a(I52
I156
I93
(lp106
g31
atp107
a(I193
I81
I224
(lp108
g28
atp109
a(I6
I102
I190
(lp110
g12
atp111
a(I169
I168
I195
(lp112
g63
atp113
a(I39
I184
I188
(lp114
g31
atp115
a(I116
I135
I231
(lp116
g12
atp117
a(I216
I154
I236
(lp118
g28
atp119
a(I203
I58
I72
(lp120
g5
atp121
a(I180
I213
I157
(lp122
g2
ag63
atp123
a(I161
I122
I214
(lp124
g12
ag28
atp125
a(I111
I179
I63
(lp126
g2
atp127
a(I81
I218
I116
(lp128
g2
atp129
a(I217
I143
I233
(lp130
g28
ag18
atp131
a(I191
I2
I46
(lp132
g5
atp133
a(I58
I165
I103
(lp134
g31
atp135
a(I99
I155
I242
(lp136
g12
atp137
a(I185
I200
I98
(lp138
g2
ag54
atp139
a(I66
I158
I58
(lp140
g2
atp141
a(I151
I76
I0
(lp142
g21
atp143
a(I215
I214
I205
(lp144
g63
atp145
a(I245
I143
I221
(lp146
g18
atp147
a(I111
I190
I8
(lp148
g2
atp149
a(I187
I116
I77
(lp150
g21
atp151
a(I14
I18
I133
(lp152
g12
atp153
a(I175
I108
I204
(lp154
g28
atp155
a(I114
I55
I102
(lp156
g28
atp157
a(I168
I9
I121
(lp158
g28
atp159
a(I137
I188
I81
(lp160
g2
atp161
a(I150
I24
I127
(lp162
g28
atp163
a(I248
I142
I50
(lp164
g92
atp165
a(I236
I25
I78
(lp166
g5
atp167
a(I253
I88
I124
(lp168
g5
ag18
atp169
a(I222
I124
I80
(lp170
g92
ag21
atp171
a(I60
I16
I61
(lp172
g28
atp173
a(I88
I161
I3
(lp174
g2
atp175
a(I117
I115
I228
(lp176
g12
atp177
a(I204
I219
I192
(lp178
g63
atp179
a(I50
I215
I123
(lp180
g2
atp181
a(I239
I92
I110
(lp182
g5
atp183
a.