(lp0
(I11
I179
I60
(lp1
S'green'
p2
atp3
a(I204
I49
I72
(lp4
S'red'
p5
atp6
a(I46
I146
I40
(lp7
g2
atp8
a(I119
I138
I12
(lp9
g2
atp10
a(I0
I44
I104
(lp11
S'blue'
p12
atp13
a(I177
I187
I24
(lp14
S'yellow'
p15
ag2
atp16
a(I212
I131
I224
(lp17
S'pink'
p18
atp19
a(I197
I142
I113
(lp20
S'brown'
p21
atp22
a(I130
I153
I47
(lp23
g2
atp24
a(I240
I44
I207
(lp25
g18
atp26
a(I148
I83
I112
(lp27
S'violet'
p28
atp29
a(I190
I247
I185
(lp30
S'cyan'
p31
atp32
a(I68
I151
I164
(lp33
g12
ag31
atp34
a(I80
I224
I40
(lp35
g2
atp36
a(I153
I191
I93
(lp37
g2
atp38
a(I73
I193
I234
(lp39
g31
atp40
a(I243
I25
I0
(lp41
g5
atp42
a(I195
I212
I35
(lp43
g15
atp44
a(I137
I43
I25
(lp45
g21
atp46
a(I222
I69
I179
(lp47
g18
atp48
a(I183
I136
I128
(lp49
g21
atp50
a(I188
I23
I165
(lp51
g28
atp52
a(I242
I185
I106
(lp53
tp54
a(I215
I109
I144
(lp55
g5
ag28
ag18
atp56
a(I21
I13
I224
(lp57
g12
atp58
a(I31
I156
I111
(lp59
g31
atp60
a(I132
I124
I172
(lp61
g12
aS'gray'
p62
atp63
a(I161
I127
I201
(lp64
g12
ag28
atp65
a(I43
I14
I194
(lp66
g12
atp67
a(I68
I141
I136
(lp68
g31
atp69
a(I145
I60
I3
(lp70
g21
atp71
a(I90
I3
I85
(lp72
g28
atp73
a(I250
I24
I224
(lp74
g18
atp75
a(I185
I98
I41
(lp76
g21
atp77
a(I217
I177
I152
(lp78
g62
atp79
a(I3
I83
I198
(lp80
g12
atp81
a(I89
I130
I185
(lp82
g12
atp83
a(I200
I200
I68
(lp84
g15
atp85
a(I97
I155
I171
(lp86
g31
atp87
a(I249
I57
I152
(lp88
g18
atp89
a(I240
I96
I44
(lp90
S'orange'
p91
atp92
a(I188
I59
I160
(lp93
g28
atp94
a(I200
I240
I186
(lp95
g31
atp96
a(I160
I136
I176
(lp97
g28
ag62
atp98
a(I91
I229
I240
(lp99
g31
atp100
a(I66
I83
I21
(lp101
g2
atp102
a(I144
I157
I236
(lp103
g12
atp104
a(I52
I156
I93
(lp105
g31
atp106
a(I193
I81
I224
(lp107
g28
atp108
a(I6
I102
I190
(lp109
g12
atp110
a(I169
I168
I195
(lp111
g62
atp112
a(I39
I184
I188
(lp113
g31
atp114
a(I116
I135
I231
(lp115
g12
atp116
a(I216
I154
I236
(lp117
g28
atp118
a(I203
I58
I72
(lp119
g5
atp120
a(I180
I213
I157
(lp121
g2
ag62
atp122
a(I161
I122
I214
(lp123
g12
ag28
atp124
a(I111
I179
I63
(lp125
g2
atp126
a(I81
I218
I116
(lp127
g2
atp128
a(I217
I143
I233
(lp129
g28
ag18
atp130
a(I191
I2
I46
(lp131
g5
atp132
a(I58
I165
I103
(lp133
g31
atp134
a(I99
I155
I242
(lp135
g12
atp136
a(I185
I200
I98
(lp137
g2
atp138
a(I66
I158
I58
(lp139
g2
atp140
a(I151
I76
I0
(lp141
g21
atp142
a(I215
I214
I205
(lp143
g62
atp144
a(I245
I143
I221
(lp145
g18
atp146
a(I111
I190
I8
(lp147
g2
atp148
a(I187
I116
I77
(lp149
g21
atp150
a(I14
I18
I133
(lp151
g12
atp152
a(I175
I108
I204
(lp153
g28
atp154
a(I114
I55
I102
(lp155
g28
atp156
a(I168
I9
I121
(lp157
g28
atp158
a(I137
I188
I81
(lp159
g2
atp160
a(I150
I24
I127
(lp161
g28
atp162
a(I248
I142
I50
(lp163
g91
atp164
a(I236
I25
I78
(lp165
g5
atp166
a(I253
I88
I124
(lp167
g5
ag18
atp168
a(I222
I124
I80
(lp169
g91
ag21
atp170
a(I60
I16
I61
(lp171
g28
atp172
a(I88
I161
I3
(lp173
g2
atp174
a(I117
I115
I228
(lp175
g12
atp176
a(I204
I219
I192
(lp177
g62
atp178
a(I50
I215
I123
(lp179
g2
atp180
a(I239
I92
I110
(lp181
g5
atp182
a.