(lp0
(I188
I103
I255
(lp1
S'violet'
p2
atp3
a(I188
I119
I255
(lp4
g2
atp5
a(I188
I128
I255
(lp6
g2
atp7
a(I188
I144
I255
(lp8
g2
aS'gray'
p9
atp10
a(I188
I161
I255
(lp11
g9
atp12
a(I188
I175
I255
(lp13
g9
atp14
a(I188
I194
I255
(lp15
g9
atp16
a(I147
I186
I255
(lp17
S'cyan'
p18
atp19
a(I147
I164
I255
(lp20
S'blue'
p21
atp22
a(I147
I147
I255
(lp23
g21
atp24
a(I147
I125
I255
(lp25
g21
atp26
a(I147
I100
I255
(lp27
g21
ag2
atp28
a(I147
I86
I255
(lp29
g21
ag2
atp30
a(I147
I64
I255
(lp31
g21
ag2
atp32
a(I147
I42
I255
(lp33
g2
atp34
a(I125
I116
I255
(lp35
g21
atp36
a(I125
I133
I255
(lp37
g21
atp38
a(I125
I158
I255
(lp39
g21
atp40
a(I125
I175
I255
(lp41
g21
ag18
atp42
a(I125
I200
I255
(lp43
g18
atp44
a.