(lp0
(I69
I72
I69
(lp1
S'gray'
p2
atp3
a(I89
I86
I103
(lp4
g2
atp5
a(I89
I94
I103
(lp6
g2
atp7
a(I97
I94
I103
(lp8
g2
atp9
a(I97
I100
I103
(lp10
g2
atp11
a(I116
I119
I139
(lp12
g2
atp13
a(I116
I125
I139
(lp14
g2
atp15
a(I125
I108
I139
(lp16
g2
atp17
a(I125
I128
I139
(lp18
g2
atp19
a(I152
I150
I139
(lp20
g2
atp21
a(I152
I169
I155
(lp22
g2
atp23
a(I161
I169
I155
(lp24
g2
atp25
a(I161
I169
I166
(lp26
g2
atp27
a(I169
I180
I175
(lp28
g2
atp29
a(I183
I183
I175
(lp30
g2
atp31
a(I183
I183
I180
(lp32
g2
atp33
a.