(lp0
(I0
I0
I33
(lp1
S'black'
p2
atp3
a(I0
I0
I53
(lp4
S'blue'
p5
atp6
a(I0
I0
I67
(lp7
g5
atp8
a(I0
I0
I69
(lp9
g5
atp10
a(I0
I0
I55
(lp11
g5
atp12
a(I0
I0
I83
(lp13
g5
atp14
a(I0
I0
I89
(lp15
g5
atp16
a(I0
I0
I75
(lp17
g5
atp18
a.