(lp0
(I255
I119
I25
(lp1
S'orange'
p2
atp3
a(I255
I136
I25
(lp4
g2
atp5
a(I255
I161
I25
(lp6
g2
atp7
a(I255
I175
I25
(lp8
g2
aS'yellow'
p9
atp10
a(I255
I200
I25
(lp11
g9
atp12
a(I255
I227
I25
(lp13
g9
atp14
a(I255
I247
I25
(lp15
g9
atp16
a(I255
I255
I25
(lp17
g9
atp18
a(I255
I61
I25
(lp19
S'red'
p20
atp21
a(I255
I139
I25
(lp22
g2
atp23
a(I255
I105
I25
(lp24
g20
ag2
atp25
a(I255
I80
I25
(lp26
g20
atp27
a(I255
I116
I25
(lp28
g20
ag2
atp29
a(I255
I136
I25
(lp30
g2
atp31
a(I255
I155
I25
(lp32
g2
atp33
a(I255
I166
I25
(lp34
g2
ag9
atp35
a(I255
I108
I25
(lp36
g20
ag2
atp37
a(I255
I125
I25
(lp38
g2
atp39
a(I255
I130
I25
(lp40
g2
atp41
a(I255
I144
I25
(lp42
g2
atp43
a(I255
I161
I25
(lp44
g2
atp45
a(I255
I175
I25
(lp46
g2
ag9
atp47
a(I255
I194
I25
(lp48
g9
atp49
a(I255
I205
I25
(lp50
g9
atp51
a.