(lp0
(I222
I191
I141
(lp1
S'tan'
p2
atp3
a(I222
I191
I155
(lp4
tp5
a(I222
I191
I155
(lp6
g2
atp7
a(I222
I191
I111
(lp8
g2
atp9
a(I222
I172
I111
(lp10
g2
atp11
a(I222
I172
I130
(lp12
g2
atp13
a(I211
I172
I130
(lp14
g2
atp15
a(I211
I172
I111
(lp16
g2
atp17
a(I211
I172
I111
(lp18
g2
atp19
a(I211
I172
I130
(lp20
g2
atp21
a(I211
I172
I144
(lp22
g2
atp23
a(I211
I172
I125
(lp24
g2
atp25
a(I211
I172
I103
(lp26
g2
atp27
a(I211
I172
I108
(lp28
g2
atp29
a(I211
I172
I111
(lp30
g2
atp31
a(I211
I172
I89
(lp32
g2
atp33
a(I211
I180
I108
(lp34
g2
atp35
a(I211
I186
I108
(lp36
g2
atp37
a(I230
I186
I108
(lp38
g2
atp39
a(I200
I155
I108
(lp40
g2
atp41
a(I200
I172
I130
(lp42
g2
atp43
a(I200
I183
I130
(lp44
g2
atp45
a(I200
I194
I186
(lp46
S'gray'
p47
atp48
a(I166
I183
I175
(lp49
g47
atp50
a(I211
I183
I130
(lp51
g2
atp52
a(I211
I172
I130
(lp53
g2
atp54
a.