(lp0
(I255
I244
I53
(lp1
S'yellow'
p2
atp3
a(I255
I244
I58
(lp4
g2
atp5
a(I255
I244
I64
(lp6
g2
atp7
a(I255
I244
I75
(lp8
g2
atp9
a(I255
I244
I78
(lp10
g2
atp11
a(I255
I244
I72
(lp12
g2
atp13
a(I255
I244
I61
(lp14
g2
atp15
a(I255
I244
I44
(lp16
g2
atp17
a(I255
I244
I50
(lp18
g2
atp19
a(I255
I244
I55
(lp20
g2
atp21
a(I255
I244
I67
(lp22
g2
atp23
a(I255
I249
I67
(lp24
g2
atp25
a(I255
I249
I58
(lp26
g2
atp27
a(I255
I249
I69
(lp28
g2
atp29
a(I255
I249
I80
(lp30
g2
atp31
a(I255
I249
I86
(lp32
g2
atp33
a(I255
I249
I55
(lp34
g2
atp35
a(I255
I249
I67
(lp36
g2
atp37
a(I255
I249
I67
(lp38
g2
atp39
a.