(lp0
(I252
I255
I0
(lp1
S'yellow'
p2
atp3
a(I252
I255
I25
(lp4
g2
atp5
a(I252
I255
I44
(lp6
g2
atp7
a(I252
I255
I47
(lp8
g2
atp9
a(I252
I255
I58
(lp10
g2
atp11
a(I252
I255
I67
(lp12
g2
atp13
a(I252
I255
I53
(lp14
g2
atp15
a(I252
I230
I53
(lp16
g2
atp17
a(I252
I230
I47
(lp18
g2
atp19
a(I252
I230
I58
(lp20
g2
atp21
a(I252
I230
I69
(lp22
g2
atp23
a(I252
I230
I80
(lp24
g2
atp25
a(I252
I230
I26
(lp26
g2
atp27
a(I252
I238
I26
(lp28
g2
atp29
a(I252
I238
I44
(lp30
g2
atp31
a(I252
I238
I50
(lp32
g2
atp33
a(I252
I238
I58
(lp34
g2
atp35
a(I252
I222
I58
(lp36
g2
atp37
a(I252
I222
I42
(lp38
g2
atp39
a(I252
I222
I33
(lp40
g2
atp41
a.