(lp0
(I219
I197
I152
(lp1
S'tan'
p2
atp3
a(I219
I197
I122
(lp4
g2
atp5
a(I219
I197
I130
(lp6
g2
atp7
a(I219
I186
I130
(lp8
g2
atp9
a(I219
I177
I130
(lp10
g2
atp11
a(I208
I177
I130
(lp12
g2
atp13
a(I208
I188
I130
(lp14
g2
atp15
a(I208
I197
I130
(lp16
g2
atp17
a(I225
I197
I130
(lp18
g2
atp19
a(I225
I205
I130
(lp20
g2
atp21
a(I225
I213
I130
(lp22
g2
atp23
a(I236
I205
I141
(lp24
g2
atp25
a(I236
I205
I150
(lp26
g2
atp27
a(I236
I213
I150
(lp28
g2
atp29
a(I236
I219
I150
(lp30
g2
atp31
a(I236
I219
I169
(lp32
g2
atp33
a(I238
I200
I155
(lp34
g2
atp35
a(I238
I202
I155
(lp36
g2
atp37
a(I225
I194
I150
(lp38
g2
atp39
a(I213
I186
I150
(lp40
g2
atp41
a(I230
I200
I150
(lp42
g2
atp43
a(I233
I200
I150
(lp44
g2
atp45
a.