(lp0
(I241
I216
I152
(lp1
S'tan'
p2
atp3
a(I241
I205
I152
(lp4
g2
atp5
a(I241
I211
I152
(lp6
g2
atp7
a(I241
I222
I152
(lp8
g2
atp9
a(I247
I222
I152
(lp10
g2
atp11
a(I247
I211
I152
(lp12
g2
atp13
a(I247
I205
I152
(lp14
g2
atp15
a(I247
I213
I164
(lp16
g2
atp17
a(I247
I222
I164
(lp18
g2
atp19
a(I238
I222
I164
(lp20
g2
atp21
a(I238
I213
I164
(lp22
g2
atp23
a(I238
I205
I164
(lp24
g2
atp25
a(I247
I211
I164
(lp26
g2
atp27
a(I247
I219
I164
(lp28
g2
atp29
a(I230
I202
I152
(lp30
g2
atp31
a(I222
I202
I152
(lp32
g2
atp33
a(I211
I202
I152
(lp34
g2
atp35
a(I211
I186
I152
(lp36
g2
atp37
a(I219
I180
I152
(lp38
g2
atp39
a(I219
I191
I152
(lp40
g2
atp41
a(I219
I205
I152
(lp42
g2
atp43
a(I219
I194
I152
(lp44
g2
atp45
a(I219
I208
I152
(lp46
g2
atp47
a(I233
I208
I152
(lp48
g2
atp49
a(I233
I208
I164
(lp50
g2
atp51
a(I233
I208
I175
(lp52
g2
atp53
a(I233
I222
I175
(lp54
g2
atp55
a.