(lp0
(I255
I92
I25
(lp1
S'red'
p2
aS'orange'
p3
atp4
a(I255
I111
I25
(lp5
g2
ag3
atp6
a(I255
I133
I25
(lp7
g3
atp8
a(I255
I139
I25
(lp9
g3
atp10
a(I255
I150
I25
(lp11
g3
atp12
a(I255
I164
I25
(lp13
g3
atp14
a(I255
I177
I25
(lp15
g3
aS'yellow'
p16
atp17
a.