(lp0
(I255
I44
I25
(lp1
S'red'
p2
atp3
a(I255
I69
I25
(lp4
g2
atp5
a(I255
I86
I25
(lp6
g2
aS'orange'
p7
atp8
a(I255
I103
I25
(lp9
g2
ag7
atp10
a(I255
I116
I25
(lp11
g7
atp12
a(I255
I125
I25
(lp13
g7
atp14
a(I255
I136
I25
(lp15
g7
atp16
a(I255
I147
I25
(lp17
g7
atp18
a(I255
I158
I25
(lp19
g7
atp20
a(I255
I169
I25
(lp21
g7
aS'yellow'
p22
atp23
a(I255
I180
I25
(lp24
g7
ag22
atp25
a(I255
I191
I25
(lp26
g22
atp27
a(I255
I211
I25
(lp28
g22
atp29
a.