(lp0
(I17
I213
I200
(lp1
S'cyan'
p2
atp3
a(I17
I213
I222
(lp4
g2
atp5
a(I17
I213
I236
(lp6
g2
atp7
a(I17
I225
I236
(lp8
g2
atp9
a(I17
I238
I236
(lp10
g2
atp11
a(I17
I238
I247
(lp12
g2
atp13
a(I17
I247
I247
(lp14
g2
atp15
a(I17
I252
I247
(lp16
g2
atp17
a(I17
I252
I133
(lp18
S'green'
p19
atp20
a(I17
I252
I158
(lp21
g19
ag2
atp22
a(I17
I252
I177
(lp23
g19
ag2
atp24
a(I17
I252
I197
(lp25
g2
atp26
a(I17
I252
I208
(lp27
g2
atp28
a(I17
I252
I230
(lp29
g2
atp30
a(I17
I172
I158
(lp31
g2
atp32
a(I17
I188
I177
(lp33
g2
atp34
a(I17
I188
I208
(lp35
S'blue'
p36
atp37
a(I17
I200
I208
(lp38
g36
ag2
atp39
a(I17
I213
I208
(lp40
g2
atp41
a(I17
I225
I225
(lp42
g2
atp43
a(I17
I225
I188
(lp44
g2
atp45
a(I17
I225
I164
(lp46
g19
ag2
atp47
a(I17
I225
I119
(lp48
g19
atp49
a(I17
I194
I152
(lp50
g2
atp51
a(I17
I194
I172
(lp52
g2
atp53
a(I17
I194
I194
(lp54
g36
ag2
atp55
a(I55
I188
I183
(lp56
g36
ag2
atp57
a(I55
I213
I200
(lp58
g2
atp59
a(I55
I230
I208
(lp60
g2
atp61
a(I55
I230
I225
(lp62
g2
atp63
a(I50
I213
I225
(lp64
g2
atp65
a(I50
I213
I205
(lp66
g2
atp67
a.