(lp0
(I208
I69
I28
(lp1
S'orange'
p2
atp3
a(I208
I69
I11
(lp4
g2
atp5
a(I208
I91
I11
(lp6
g2
atp7
a(I208
I141
I11
(lp8
tp9
a(I208
I89
I11
(lp10
g2
atp11
a(I208
I89
I39
(lp12
g2
atp13
a(I255
I141
I39
(lp14
g2
atp15
a(I255
I128
I39
(lp16
g2
atp17
a(I255
I130
I39
(lp18
g2
atp19
a(I255
I130
I50
(lp20
g2
atp21
a(I255
I130
I14
(lp22
g2
atp23
a(I255
I130
I0
(lp24
g2
atp25
a(I255
I155
I0
(lp26
g2
aS'yellow'
p27
atp28
a(I255
I175
I0
(lp29
g2
ag27
atp30
a(I255
I194
I0
(lp31
g27
atp32
a(I255
I116
I0
(lp33
g2
atp34
a(I255
I103
I0
(lp35
g2
atp36
a(I255
I80
I0
(lp37
S'red'
p38
ag2
atp39
a(I255
I80
I36
(lp40
g38
ag2
atp41
a(I255
I100
I36
(lp42
g2
atp43
a(I255
I116
I36
(lp44
g2
atp45
a(I236
I116
I36
(lp46
g2
atp47
a(I236
I94
I36
(lp48
g2
atp49
a(I216
I94
I36
(lp50
g2
aS'brown'
p51
atp52
a(I197
I94
I36
(lp53
g51
atp54
a(I183
I94
I36
(lp55
g51
atp56
a(I166
I94
I36
(lp57
g51
atp58
a(I158
I94
I36
(lp59
g51
atp60
a(I141
I94
I36
(lp61
g51
atp62
a(I125
I94
I36
(lp63
g51
atp64
a(I125
I94
I64
(lp65
S'gray'
p66
atp67
a(I125
I94
I97
(lp68
g66
atp69
a(I255
I144
I42
(lp70
g2
atp71
a(I255
I175
I42
(lp72
g2
ag27
atp73
a(I255
I227
I42
(lp74
g27
atp75
a(I255
I188
I42
(lp76
g27
atp77
a(I255
I166
I75
(lp78
g2
atp79
a(I255
I139
I75
(lp80
g2
atp81
a(I255
I97
I75
(lp82
g38
ag2
atp83
a(I255
I116
I75
(lp84
g38
ag2
atp85
a.