(lp0
(I255
I0
I8
(lp1
S'red'
p2
atp3
a(I255
I25
I8
(lp4
g2
atp5
a(I255
I42
I8
(lp6
g2
atp7
a(I255
I61
I8
(lp8
g2
aS'orange'
p9
atp10
a(I255
I72
I8
(lp11
g2
ag9
atp12
a(I255
I78
I8
(lp13
g2
ag9
atp14
a(I255
I89
I8
(lp15
g9
atp16
a(I255
I108
I8
(lp17
g9
atp18
a(I255
I116
I8
(lp19
g9
atp20
a(I255
I122
I8
(lp21
g9
atp22
a(I255
I133
I8
(lp23
g9
atp24
a(I255
I147
I8
(lp25
g9
atp26
a(I255
I164
I8
(lp27
g9
aS'yellow'
p28
atp29
a(I255
I186
I8
(lp30
g28
atp31
a(I255
I200
I8
(lp32
g28
atp33
a(I255
I219
I8
(lp34
g28
atp35
a(I255
I238
I8
(lp36
g28
atp37
a(I255
I155
I8
(lp38
g9
atp39
a(I255
I147
I8
(lp40
g9
atp41
a(I255
I144
I8
(lp42
g9
atp43
a(I255
I119
I8
(lp44
g9
atp45
a.