(lp0
(I255
I244
I11
(lp1
S'yellow'
p2
atp3
a(I255
I244
I22
(lp4
g2
atp5
a(I255
I244
I28
(lp6
g2
atp7
a(I255
I244
I39
(lp8
g2
atp9
a(I255
I244
I30
(lp10
g2
atp11
a(I255
I244
I47
(lp12
g2
atp13
a(I255
I244
I55
(lp14
g2
atp15
a(I255
I244
I67
(lp16
g2
atp17
a(I255
I244
I58
(lp18
g2
atp19
a(I255
I244
I50
(lp20
g2
atp21
a(I255
I244
I36
(lp22
g2
atp23
a(I255
I244
I25
(lp24
g2
atp25
a(I255
I244
I19
(lp26
g2
atp27
a(I255
I244
I14
(lp28
g2
atp29
a(I255
I244
I11
(lp30
g2
atp31
a.