(lp0
(I255
I0
I28
(lp1
S'red'
p2
atp3
a(I255
I14
I28
(lp4
g2
atp5
a(I255
I22
I28
(lp6
g2
atp7
a(I255
I33
I28
(lp8
g2
atp9
a(I255
I55
I28
(lp10
g2
atp11
a(I255
I80
I28
(lp12
g2
atp13
a(I255
I103
I28
(lp14
g2
aS'orange'
p15
atp16
a(I255
I119
I28
(lp17
g15
atp18
a(I255
I141
I28
(lp19
g15
atp20
a(I255
I125
I28
(lp21
g15
atp22
a(I255
I150
I28
(lp23
g15
atp24
a(I255
I164
I28
(lp25
g15
atp26
a(I255
I183
I28
(lp27
g15
aS'yellow'
p28
atp29
a(I255
I202
I28
(lp30
g28
atp31
a(I255
I216
I28
(lp32
g28
atp33
a(I255
I233
I28
(lp34
g28
atp35
a(I255
I244
I28
(lp36
g28
atp37
a(I255
I244
I28
(lp38
g28
atp39
a(I255
I233
I28
(lp40
g28
atp41
a(I255
I241
I28
(lp42
g28
atp43
a(I255
I244
I28
(lp44
g28
atp45
a(I255
I249
I28
(lp46
g28
atp47
a(I255
I244
I28
(lp48
g28
atp49
a(I255
I244
I11
(lp50
g28
atp51
a(I255
I233
I11
(lp52
g28
atp53
a(I255
I247
I11
(lp54
g28
atp55
a(I255
I238
I11
(lp56
g28
atp57
a(I255
I238
I39
(lp58
g28
atp59
a(I255
I230
I39
(lp60
g28
atp61
a(I255
I241
I39
(lp62
g28
atp63
a(I255
I252
I39
(lp64
g28
atp65
a(I255
I255
I39
(lp66
g28
atp67
a(I255
I247
I39
(lp68
g28
atp69
a(I255
I247
I22
(lp70
g28
atp71
a(I255
I247
I64
(lp72
g28
atp73
a(I255
I247
I42
(lp74
g28
atp75
a(I255
I247
I89
(lp76
g28
atp77
a(I255
I247
I69
(lp78
g28
atp79
a(I255
I247
I42
(lp80
g28
atp81
a(I255
I247
I33
(lp82
g28
atp83
a(I255
I247
I47
(lp84
g28
atp85
a(I255
I247
I64
(lp86
g28
atp87
a(I255
I247
I80
(lp88
g28
atp89
a.