(lp0
(I230
I191
I114
(lp1
S'tan'
p2
atp3
a(I230
I191
I136
(lp4
g2
atp5
a(I230
I191
I105
(lp6
g2
atp7
a(I230
I191
I116
(lp8
g2
atp9
a(I230
I191
I133
(lp10
g2
atp11
a(I230
I191
I147
(lp12
g2
atp13
a(I230
I202
I147
(lp14
g2
atp15
a(I230
I202
I130
(lp16
g2
atp17
a(I230
I202
I128
(lp18
g2
atp19
a(I230
I202
I158
(lp20
g2
atp21
a(I238
I216
I158
(lp22
g2
atp23
a(I238
I216
I150
(lp24
g2
atp25
a(I238
I216
I175
(lp26
g2
atp27
a(I236
I205
I144
(lp28
g2
atp29
a(I236
I205
I155
(lp30
g2
atp31
a(I236
I211
I155
(lp32
g2
atp33
a(I238
I219
I177
(lp34
g2
atp35
a(I236
I208
I150
(lp36
g2
atp37
a(I236
I208
I161
(lp38
g2
atp39
a(I236
I208
I139
(lp40
g2
atp41
a(I236
I208
I130
(lp42
g2
atp43
a(I236
I202
I130
(lp44
g2
atp45
a(I236
I208
I130
(lp46
g2
atp47
a.