(dp0
S'blue'
p1
(dp2
((I0
I183
tp3
(I0
I219
tp4
(I53
I255
tp5
tp6
(dp7
((I127
I183
tp8
(I161
I219
tp9
(I53
I148
tp10
tp11
(dp12
((I162
I183
tp13
(I161
I204
tp14
(I75
I148
tp15
tp16
I00
s(g13
g14
(I53
I74
tp17
tp18
I00
s(g13
(I205
I219
tp19
g15
tp20
I01
s((I127
I161
tp21
g14
g17
tp22
I00
s(g21
g14
g15
tp23
I00
s(g21
g19
g15
tp24
I00
s(g13
g19
g17
tp25
I01
s(g21
g19
g17
tp26
I00
ss((I0
I126
tp27
g9
g10
tp28
(dp29
((I11
I126
tp30
(I205
I219
tp31
(I53
I74
tp32
tp33
I00
s(g30
(I161
I204
tp34
g32
tp35
I00
s((I0
I10
tp36
g31
(I75
I148
tp37
tp38
I01
s(g30
g34
g37
tp39
I00
s(g30
g31
g37
tp40
I00
s(g36
g34
g37
tp41
I00
s(g36
g34
g32
tp42
I01
s(g36
g31
g32
tp43
I00
ss(g8
(I0
I160
tp44
g10
tp45
(dp46
((I162
I183
tp47
(I11
I160
tp48
(I53
I74
tp49
tp50
I00
s(g47
(I0
I10
tp51
(I75
I148
tp52
tp53
I00
s(g47
g48
g52
tp54
I00
s((I127
I161
tp55
g48
g52
tp56
I00
s(g55
g51
g52
tp57
I00
s(g55
g48
g49
tp58
I00
s(g55
g51
g49
tp59
I00
s(g47
g51
g49
tp60
I01
ss(g8
g9
(I149
I255
tp61
tp62
I01
s(g27
g44
g10
tp63
(dp64
((I0
I10
tp65
(I11
I160
tp66
(I75
I148
tp67
tp68
I01
s(g65
(I0
I10
tp69
(I53
I74
tp70
tp71
I01
s((I11
I126
tp72
g66
g70
tp73
I00
s(g72
g66
g67
tp74
(dp75
((I11
I126
tp76
(I47
I160
tp77
(I75
I148
tp78
tp79
I00
s(g76
(I11
I46
tp80
g78
tp81
I01
ss(g65
g66
g70
tp82
(dp83
((I0
I10
tp84
(I47
I160
tp85
(I53
I74
tp86
tp87
I00
s(g84
(I11
I46
tp88
g86
tp89
I01
ss(g72
g69
g70
tp90
I01
s(g72
g69
g67
tp91
I01
s(g65
g69
g67
tp92
I01
ss(g27
g9
g61
tp93
(dp94
((I11
I126
tp95
(I161
I204
tp96
(I149
I255
tp97
tp98
I01
s(g95
(I205
I219
tp99
g97
tp100
I01
s((I0
I10
tp101
g99
g97
tp102
I01
s(g101
g96
g97
tp103
(dp104
((I0
I10
tp105
(I161
I179
tp106
(I149
I255
tp107
tp108
I01
s(g105
(I180
I204
tp109
g107
tp110
I00
sss(g8
g44
g61
tp111
(dp112
((I127
I161
tp113
(I11
I160
tp114
(I149
I255
tp115
tp116
(dp117
((I142
I161
tp118
(I47
I160
tp119
(I149
I255
tp120
tp121
I01
s((I127
I141
tp122
g119
g120
tp123
I01
s(g122
(I11
I46
tp124
g120
tp125
(dp126
((I127
I141
tp127
(I11
I34
tp128
(I149
I255
tp129
tp130
I01
s(g127
(I35
I46
tp131
g129
tp132
I00
ss(g118
g124
g120
tp133
I00
ss((I162
I183
tp134
g114
g115
tp135
I00
s(g113
(I0
I10
tp136
g115
tp137
(dp138
((I142
I161
tp139
(I0
I10
tp140
(I149
I255
tp141
tp142
I01
s((I127
I141
tp143
g140
g141
tp144
I00
ss(g134
g136
g115
tp145
I01
ss(g27
g44
g61
tp146
I01
sssS'pink'
p147
(dp148
((I171
I255
tp149
(I0
I206
tp150
(I72
I255
tp151
tp152
(dp153
((I171
I195
tp154
(I0
I206
tp155
(I72
I99
tp156
tp157
I01
s((I196
I255
tp158
g155
(I100
I255
tp159
tp160
I01
s(g158
g155
g156
tp161
I00
s(g154
g155
g159
tp162
I01
sssS'brown'
p163
(dp164
((I33
I225
tp165
(I0
I173
tp166
(I0
I128
tp167
tp168
(dp169
((I33
I96
tp170
(I35
I173
tp171
(I0
I83
tp172
tp173
(dp174
((I33
I96
tp175
(I147
I173
tp176
(I0
I83
tp177
tp178
I01
s(g175
(I35
I146
tp179
g177
tp180
I00
ss(g170
g171
(I84
I128
tp181
tp182
I00
s(g170
(I0
I34
tp183
g172
tp184
I01
s((I97
I225
tp185
g183
g181
tp186
I00
s(g170
g183
g181
tp187
I01
s(g185
g171
g181
tp188
(dp189
((I97
I205
tp190
(I35
I146
tp191
(I84
I128
tp192
tp193
I00
s((I206
I225
tp194
g191
g192
tp195
I01
s(g190
(I147
I173
tp196
g192
tp197
I01
s(g194
g196
g192
tp198
I01
ss(g185
g171
g172
tp199
I01
s(g185
g183
g172
tp200
(dp201
((I206
I225
tp202
(I0
I34
tp203
(I0
I83
tp204
tp205
I01
s((I97
I205
tp206
g203
g204
tp207
I00
ssssS'gray'
p208
(dp209
((I11
I236
tp210
(I28
I222
tp211
(I17
I255
tp212
tp213
(dp214
((I44
I236
tp215
(I28
I109
tp216
(I44
I255
tp217
tp218
(dp219
((I225
I236
tp220
(I47
I109
tp221
(I44
I255
tp222
tp223
I00
s((I44
I224
tp224
g221
g222
tp225
(dp226
((I44
I224
tp227
(I62
I109
tp228
(I44
I255
tp229
tp230
(dp231
((I44
I224
tp232
(I62
I74
tp233
(I44
I255
tp234
tp235
I01
s(g232
(I75
I109
tp236
g234
tp237
(dp238
((I44
I224
tp239
(I96
I109
tp240
(I44
I255
tp241
tp242
I01
s(g239
(I75
I95
tp243
g241
tp244
I00
sss(g227
(I47
I61
tp245
g229
tp246
I01
ss(g224
(I28
I46
tp247
g222
tp248
I01
s(g220
g247
g222
tp249
I01
ss((I11
I43
tp250
g216
(I17
I43
tp251
tp252
I00
s(g250
g216
g217
tp253
I00
s(g215
(I110
I222
tp254
g217
tp255
(dp256
((I225
I236
tp257
(I110
I181
tp258
(I44
I255
tp259
tp260
I00
s((I44
I224
tp261
g258
g259
tp262
(dp263
((I44
I224
tp264
(I110
I146
tp265
(I44
I255
tp266
tp267
(dp268
((I44
I224
tp269
(I137
I146
tp270
(I44
I255
tp271
tp272
I01
s(g269
(I110
I136
tp273
g271
tp274
I00
ss(g264
(I147
I181
tp275
g266
tp276
I01
ss(g257
(I182
I222
tp277
g259
tp278
I01
s(g261
g277
g259
tp279
I01
ss(g250
g254
g217
tp280
I00
s(g215
g216
g251
tp281
(dp282
((I44
I224
tp283
(I47
I109
tp284
(I17
I43
tp285
tp286
I00
s((I225
I236
tp287
(I28
I46
tp288
g285
tp289
I01
s(g283
g288
g285
tp290
I00
s(g287
g284
g285
tp291
I00
ss(g215
g254
g251
tp292
I00
s(g250
g254
g251
tp293
I00
sssS'yellow'
p294
(dp295
((I152
I255
tp296
(I150
I255
tp297
(I0
I141
tp298
tp299
(dp300
((I166
I255
tp301
(I150
I185
tp302
(I43
I141
tp303
tp304
I00
s((I152
I165
tp305
(I186
I255
tp306
g303
tp307
I00
s(g305
g302
g303
tp308
(dp309
((I152
I165
tp310
(I150
I167
tp311
(I43
I94
tp312
tp313
I01
s(g310
(I168
I185
tp314
(I95
I141
tp315
tp316
I00
s(g310
g314
g312
tp317
I01
s(g310
g311
g315
tp318
I00
ss(g305
g306
(I0
I42
tp319
tp320
I01
s(g301
g306
g303
tp321
(dp322
((I227
I255
tp323
(I186
I255
tp324
(I95
I141
tp325
tp326
I00
s((I166
I226
tp327
g324
(I43
I94
tp328
tp329
(dp330
((I166
I202
tp331
(I186
I255
tp332
(I43
I63
tp333
tp334
(dp335
((I166
I191
tp336
(I186
I255
tp337
(I43
I63
tp338
tp339
I00
s((I192
I202
tp340
g337
g338
tp341
I01
ss((I203
I226
tp342
g332
(I64
I94
tp343
tp344
I00
s(g342
g332
g333
tp345
I01
s(g331
g332
g343
tp346
I01
ss(g323
g324
g328
tp347
I01
s(g327
g324
g325
tp348
I00
ss(g301
g306
g319
tp349
I01
s(g305
g302
g319
tp350
I01
s(g301
g302
g319
tp351
(dp352
((I166
I226
tp353
(I150
I167
tp354
(I0
I42
tp355
tp356
I01
s((I227
I255
tp357
(I168
I185
tp358
g355
tp359
I00
s(g353
g358
g355
tp360
I01
s(g357
g354
g355
tp361
I01
ssssS'green'
p362
(dp363
((I0
I224
tp364
(I33
I255
tp365
(I0
I252
tp366
tp367
(dp368
((I144
I224
tp369
(I33
I157
tp370
(I0
I139
tp371
tp372
I00
s(g369
(I158
I255
tp373
(I140
I252
tp374
tp375
I00
s(g369
g373
g371
tp376
(dp377
((I144
I197
tp378
(I158
I205
tp379
(I33
I139
tp380
tp381
(dp382
((I186
I197
tp383
(I158
I193
tp384
(I119
I139
tp385
tp386
I01
s((I144
I185
tp387
g384
(I33
I118
tp388
tp389
I01
s(g387
(I194
I205
tp390
g385
tp391
I01
s(g383
g390
g388
tp392
I01
s(g383
g390
g385
tp393
I01
s(g387
g390
g388
tp394
I01
s(g387
g384
g385
tp395
(dp396
((I144
I174
tp397
(I158
I193
tp398
(I119
I139
tp399
tp400
I00
s((I175
I185
tp401
g398
g399
tp402
I01
ss(g383
g384
g388
tp403
I01
ss(g378
g379
(I0
I32
tp404
tp405
I01
s((I198
I224
tp406
(I206
I255
tp407
g380
tp408
(dp409
((I198
I224
tp410
(I206
I255
tp411
(I33
I118
tp412
tp413
(dp414
((I198
I224
tp415
(I206
I255
tp416
(I33
I43
tp417
tp418
I01
s(g415
g416
(I44
I118
tp419
tp420
I00
ss(g410
g411
(I119
I139
tp421
tp422
I01
ss(g378
g407
g380
tp423
I01
s(g406
g407
g404
tp424
I00
s(g378
g407
g404
tp425
I01
s(g406
g379
g404
tp426
(dp427
((I198
I224
tp428
(I158
I193
tp429
(I15
I32
tp430
tp431
I00
s(g428
(I194
I205
tp432
g430
tp433
I01
s(g428
g429
(I0
I14
tp434
tp435
I01
s(g428
g432
g434
tp436
I00
ss(g406
g379
g380
tp437
(dp438
((I198
I224
tp439
(I158
I193
tp440
(I33
I118
tp441
tp442
I00
s(g439
(I194
I205
tp443
g441
tp444
I00
s(g439
g440
(I119
I139
tp445
tp446
I00
s(g439
g443
g445
tp447
I01
sss((I0
I143
tp448
g370
g374
tp449
I00
s(g448
g370
g371
tp450
(dp451
((I0
I143
tp452
(I33
I95
tp453
(I33
I139
tp454
tp455
(dp456
((I0
I143
tp457
(I33
I51
tp458
(I119
I139
tp459
tp460
I01
s(g457
(I52
I95
tp461
g459
tp462
I00
s(g457
g458
(I33
I118
tp463
tp464
I00
s(g457
g461
g463
tp465
(dp466
((I0
I143
tp467
(I52
I85
tp468
(I33
I43
tp469
tp470
I01
s(g467
(I86
I95
tp471
(I44
I118
tp472
tp473
I00
s(g467
g471
g469
tp474
I00
s(g467
g468
g472
tp475
I00
sss(g452
g453
(I0
I32
tp476
tp477
I01
s(g452
(I96
I157
tp478
g476
tp479
I01
s(g452
g478
g454
tp480
I01
ss(g369
g370
g374
tp481
I00
s(g448
g373
g371
tp482
I01
s(g448
g373
g374
tp483
I00
sssS'violet'
p484
(dp485
((I11
I219
tp486
(I0
I177
tp487
(I17
I255
tp488
tp489
(dp490
((I85
I219
tp491
(I0
I82
tp492
(I17
I113
tp493
tp494
(dp495
((I85
I201
tp496
(I0
I45
tp497
(I17
I47
tp498
tp499
(dp500
((I85
I104
tp501
(I0
I45
tp502
(I17
I47
tp503
tp504
I01
s((I105
I201
tp505
g502
g503
tp506
I00
ss((I202
I219
tp507
(I46
I82
tp508
(I48
I113
tp509
tp510
I01
s(g507
g497
g498
tp511
I01
s(g496
g508
g509
tp512
I01
s(g496
g508
g498
tp513
(dp514
((I85
I104
tp515
(I46
I82
tp516
(I17
I47
tp517
tp518
I01
s((I105
I201
tp519
g516
g517
tp520
I00
ss(g507
g497
g509
tp521
I01
s(g507
g508
g498
tp522
I01
s(g496
g497
g509
tp523
I01
ss(g491
g492
(I114
I255
tp524
tp525
I01
s((I11
I84
tp526
(I83
I177
tp527
g493
tp528
I00
s(g526
g492
g524
tp529
I01
s(g526
g492
g493
tp530
(dp531
((I11
I46
tp532
(I46
I82
tp533
(I48
I113
tp534
tp535
I01
s(g532
(I0
I45
tp536
g534
tp537
I01
s((I47
I84
tp538
g533
g534
tp539
I00
s(g532
g536
(I17
I47
tp540
tp541
I01
s(g532
g533
g540
tp542
I01
s(g538
g533
g540
tp543
I00
s(g538
g536
g540
tp544
I01
s(g538
g536
g534
tp545
I01
ss(g491
g527
g493
tp546
(dp547
((I202
I219
tp548
(I83
I154
tp549
(I17
I47
tp550
tp551
I01
s(g548
(I155
I177
tp552
g550
tp553
I01
s((I85
I201
tp554
g552
g550
tp555
(dp556
((I85
I104
tp557
(I155
I177
tp558
(I17
I47
tp559
tp560
I01
s((I105
I201
tp561
g558
g559
tp562
I00
ss(g554
g549
g550
tp563
I00
s(g554
g549
(I48
I113
tp564
tp565
I00
s(g554
g552
g564
tp566
I00
s(g548
g552
g564
tp567
I01
s(g548
g549
g564
tp568
I01
ss(g526
g527
g524
tp569
I00
s(g491
g527
g524
tp570
(dp571
((I85
I201
tp572
(I83
I154
tp573
(I114
I255
tp574
tp575
(dp576
((I85
I104
tp577
(I83
I154
tp578
(I114
I255
tp579
tp580
I01
s((I105
I201
tp581
g578
g579
tp582
I00
ss(g572
(I155
I177
tp583
g574
tp584
I00
s((I202
I219
tp585
g583
g574
tp586
I01
s(g585
g573
g574
tp587
I01
ssssS'orange'
p588
(dp589
((I169
I255
tp590
(I19
I202
tp591
(I0
I94
tp592
tp593
(dp594
((I169
I224
tp595
(I69
I202
tp596
(I51
I94
tp597
tp598
(dp599
((I195
I224
tp600
(I176
I202
tp601
(I80
I94
tp602
tp603
I01
s((I169
I194
tp604
g601
(I51
I79
tp605
tp606
I01
s(g600
(I69
I175
tp607
g605
tp608
(dp609
((I213
I224
tp610
(I124
I175
tp611
(I51
I79
tp612
tp613
I01
s(g610
(I69
I123
tp614
g612
tp615
I00
s((I195
I212
tp616
g611
g612
tp617
I00
s(g616
g614
g612
tp618
I01
ss(g604
g607
g605
tp619
I00
s(g604
g601
g602
tp620
I01
s(g600
g607
g602
tp621
(dp622
((I213
I224
tp623
(I124
I175
tp624
(I80
I94
tp625
tp626
I01
s(g623
(I69
I123
tp627
g625
tp628
I00
s((I195
I212
tp629
g624
g625
tp630
I00
s(g629
g627
g625
tp631
I01
ss(g604
g607
g602
tp632
I01
s(g600
g601
g605
tp633
(dp634
((I195
I212
tp635
(I176
I202
tp636
(I51
I79
tp637
tp638
I00
s((I213
I224
tp639
g636
g637
tp640
I01
sss((I225
I255
tp641
g596
g597
tp642
(dp643
((I236
I255
tp644
(I69
I175
tp645
(I80
I94
tp646
tp647
I01
s(g644
(I176
I202
tp648
g646
tp649
I01
s(g644
g645
(I51
I79
tp650
tp651
(dp652
((I236
I255
tp653
(I124
I175
tp654
(I51
I79
tp655
tp656
I01
s(g653
(I69
I123
tp657
g655
tp658
(dp659
((I236
I255
tp660
(I69
I108
tp661
(I51
I79
tp662
tp663
I00
s(g660
(I109
I123
tp664
g662
tp665
I01
sss(g644
g648
g650
tp666
I01
s((I225
I235
tp667
g648
g646
tp668
I01
s(g667
g645
g646
tp669
(dp670
((I225
I235
tp671
(I69
I123
tp672
(I80
I94
tp673
tp674
I01
s(g671
(I124
I175
tp675
g673
tp676
(dp677
((I225
I235
tp678
(I153
I175
tp679
(I80
I94
tp680
tp681
I00
s(g678
(I124
I152
tp682
g680
tp683
I01
sss(g667
g648
g650
tp684
I01
s(g667
g645
g650
tp685
I01
ss(g641
(I19
I68
tp686
g597
tp687
(dp688
((I236
I255
tp689
(I19
I68
tp690
(I80
I94
tp691
tp692
I01
s(g689
g690
(I51
I79
tp693
tp694
I00
s((I225
I235
tp695
g690
g693
tp696
I00
s(g695
g690
g691
tp697
I01
ss(g641
g596
(I0
I50
tp698
tp699
(dp700
((I225
I235
tp701
(I176
I202
tp702
(I34
I50
tp703
tp704
I01
s((I236
I255
tp705
g702
g703
tp706
I01
s(g705
(I69
I175
tp707
g703
tp708
I01
s(g701
g707
(I0
I33
tp709
tp710
I01
s(g701
g707
g703
tp711
I01
s(g705
g707
g709
tp712
I01
s(g705
g702
g709
tp713
I00
s(g701
g702
g709
tp714
(dp715
((I225
I235
tp716
(I176
I202
tp717
(I0
I16
tp718
tp719
I00
s(g716
g717
(I17
I33
tp720
tp721
I01
sss(g641
g686
g698
tp722
(dp723
((I236
I255
tp724
(I19
I68
tp725
(I0
I33
tp726
tp727
I00
s(g724
g725
(I34
I50
tp728
tp729
I01
s((I225
I235
tp730
g725
g726
tp731
(dp732
((I225
I235
tp733
(I19
I68
tp734
(I17
I33
tp735
tp736
I00
s(g733
g734
(I0
I16
tp737
tp738
I01
ss(g730
g725
g728
tp739
I00
ss(g595
g686
g698
tp740
(dp741
((I195
I224
tp742
(I19
I68
tp743
(I0
I33
tp744
tp745
(dp746
((I195
I212
tp747
(I19
I68
tp748
(I17
I33
tp749
tp750
I01
s((I213
I224
tp751
g748
g749
tp752
I01
s(g751
g748
(I0
I16
tp753
tp754
I00
s(g747
g748
g753
tp755
I01
ss(g742
g743
(I34
I50
tp756
tp757
I00
s((I169
I194
tp758
g743
g756
tp759
I01
s(g758
g743
g744
tp760
I01
ss(g595
g686
g597
tp761
(dp762
((I169
I194
tp763
(I19
I68
tp764
(I51
I79
tp765
tp766
I00
s(g763
g764
(I80
I94
tp767
tp768
I01
s((I195
I224
tp769
g764
g765
tp770
I00
s(g769
g764
g767
tp771
I00
ss(g595
g596
g698
tp772
(dp773
((I195
I224
tp774
(I69
I175
tp775
(I0
I33
tp776
tp777
I01
s(g774
g775
(I34
I50
tp778
tp779
(dp780
((I195
I212
tp781
(I124
I175
tp782
(I34
I50
tp783
tp784
(dp785
((I195
I212
tp786
(I124
I152
tp787
(I34
I50
tp788
tp789
I01
s(g786
(I153
I175
tp790
g788
tp791
I00
ss((I213
I224
tp792
g782
g783
tp793
(dp794
((I213
I224
tp795
(I153
I175
tp796
(I34
I50
tp797
tp798
I00
s(g795
(I124
I152
tp799
g797
tp800
I01
ss(g781
(I69
I123
tp801
g783
tp802
I01
s(g792
g801
g783
tp803
I01
ss((I169
I194
tp804
(I176
I202
tp805
g778
tp806
I01
s(g774
g805
g778
tp807
I01
s(g804
g805
g776
tp808
(dp809
((I169
I194
tp810
(I176
I202
tp811
(I17
I33
tp812
tp813
I00
s(g810
g811
(I0
I16
tp814
tp815
I01
ss(g804
g775
g776
tp816
(dp817
((I169
I194
tp818
(I124
I175
tp819
(I0
I16
tp820
tp821
(dp822
((I169
I194
tp823
(I124
I152
tp824
(I0
I16
tp825
tp826
I01
s(g823
(I153
I175
tp827
g825
tp828
I00
ss(g818
(I69
I123
tp829
g820
tp830
I01
s(g818
g819
(I17
I33
tp831
tp832
I00
s(g818
g829
g831
tp833
I01
ss(g774
g805
g776
tp834
(dp835
((I213
I224
tp836
(I176
I202
tp837
(I0
I16
tp838
tp839
I00
s((I195
I212
tp840
g837
(I17
I33
tp841
tp842
I01
s(g836
g837
g841
tp843
I01
s(g840
g837
g838
tp844
I00
ss(g804
g775
g778
tp845
I00
ssssS'cyan'
p846
(dp847
((I0
I220
tp848
(I77
I255
tp849
(I60
I255
tp850
tp851
(dp852
((I126
I220
tp853
(I77
I193
tp854
(I60
I85
tp855
tp856
(dp857
((I201
I220
tp858
(I77
I134
tp859
(I60
I85
tp860
tp861
I01
s((I126
I200
tp862
(I135
I193
tp863
g860
tp864
I00
s(g862
g859
g860
tp865
I00
s(g858
g863
g860
tp866
I00
ss(g853
(I194
I255
tp867
(I86
I255
tp868
tp869
(dp870
((I201
I220
tp871
(I194
I234
tp872
(I134
I255
tp873
tp874
I01
s((I126
I200
tp875
g872
(I86
I133
tp876
tp877
I00
s(g871
(I235
I255
tp878
g873
tp879
I01
s(g871
g872
g876
tp880
(dp881
((I201
I220
tp882
(I194
I234
tp883
(I122
I133
tp884
tp885
I01
s(g882
g883
(I86
I121
tp886
tp887
I00
ss(g875
g878
g873
tp888
I01
s(g875
g872
g873
tp889
(dp890
((I126
I189
tp891
(I194
I234
tp892
(I134
I255
tp893
tp894
(dp895
((I177
I189
tp896
(I194
I234
tp897
(I134
I255
tp898
tp899
I01
s((I126
I176
tp900
g897
g898
tp901
(dp902
((I139
I176
tp903
(I194
I234
tp904
(I134
I255
tp905
tp906
I00
s((I126
I138
tp907
g904
g905
tp908
I01
sss((I190
I200
tp909
g892
g893
tp910
I01
ss(g871
g878
g876
tp911
I00
s(g875
g878
g876
tp912
(dp913
((I126
I189
tp914
(I235
I255
tp915
(I86
I121
tp916
tp917
I00
s((I190
I200
tp918
g915
g916
tp919
I01
s(g914
g915
(I122
I133
tp920
tp921
I00
s(g918
g915
g920
tp922
I01
sss(g853
g854
g868
tp923
I00
s((I0
I125
tp924
g854
g855
tp925
(dp926
((I0
I100
tp927
(I135
I193
tp928
(I60
I85
tp929
tp930
I00
s((I101
I125
tp931
g928
g929
tp932
I01
s(g931
(I77
I134
tp933
g929
tp934
I00
s(g927
g933
g929
tp935
I00
ss(g924
g867
g855
tp936
(dp937
((I0
I100
tp938
(I194
I234
tp939
(I60
I85
tp940
tp941
I00
s((I101
I125
tp942
g939
g940
tp943
I01
s(g942
(I235
I255
tp944
g940
tp945
I00
s(g938
g944
g940
tp946
I00
ss(g853
g867
g855
tp947
(dp948
((I201
I220
tp949
(I235
I255
tp950
(I60
I85
tp951
tp952
I01
s((I126
I200
tp953
(I194
I234
tp954
g951
tp955
I00
s(g953
g950
g951
tp956
I00
s(g949
g954
g951
tp957
I00
ss(g924
g854
g868
tp958
(dp959
((I0
I100
tp960
(I77
I134
tp961
(I86
I133
tp962
tp963
(dp964
((I0
I100
tp965
(I89
I134
tp966
(I86
I121
tp967
tp968
I01
s(g965
g966
(I122
I133
tp969
tp970
I00
s(g965
(I77
I88
tp971
g967
tp972
(dp973
((I0
I100
tp974
(I77
I88
tp975
(I86
I110
tp976
tp977
I00
s(g974
g975
(I111
I121
tp978
tp979
I01
ss(g965
g971
g969
tp980
I01
ss((I101
I125
tp981
g961
(I134
I255
tp982
tp983
(dp984
((I116
I125
tp985
(I77
I88
tp986
(I134
I255
tp987
tp988
I01
s(g985
(I89
I134
tp989
g987
tp990
I00
s((I101
I115
tp991
g986
g987
tp992
I00
s(g991
g989
g987
tp993
I00
ss(g960
(I135
I193
tp994
g982
tp995
I01
s(g981
g994
g962
tp996
(dp997
((I101
I115
tp998
(I135
I193
tp999
(I122
I133
tp1000
tp1001
I00
s((I116
I125
tp1002
g999
g1000
tp1003
I01
s(g1002
g999
(I86
I121
tp1004
tp1005
I01
s(g998
g999
g1004
tp1006
I00
ss(g981
g961
g962
tp1007
(dp1008
((I101
I115
tp1009
(I77
I88
tp1010
(I86
I121
tp1011
tp1012
I01
s(g1009
(I89
I134
tp1013
g1011
tp1014
I01
s((I116
I125
tp1015
g1013
(I122
I133
tp1016
tp1017
I00
s(g1015
g1010
g1016
tp1018
I01
s(g1009
g1010
g1016
tp1019
I01
s(g1009
g1013
g1016
tp1020
I00
s(g1015
g1013
g1011
tp1021
I01
s(g1015
g1010
g1011
tp1022
I01
ss(g981
g994
g982
tp1023
I00
s(g960
g961
g982
tp1024
I00
s(g960
g994
g962
tp1025
I01
ss(g924
g867
g868
tp1026
(dp1027
((I101
I125
tp1028
(I235
I255
tp1029
(I134
I255
tp1030
tp1031
I01
s((I0
I100
tp1032
(I194
I234
tp1033
(I86
I133
tp1034
tp1035
(dp1036
((I0
I100
tp1037
(I194
I234
tp1038
(I122
I133
tp1039
tp1040
I01
s(g1037
g1038
(I86
I121
tp1041
tp1042
I00
ss(g1028
g1033
g1030
tp1043
I01
s(g1032
g1029
g1030
tp1044
I01
s(g1032
g1029
g1034
tp1045
(dp1046
((I0
I100
tp1047
(I235
I255
tp1048
(I86
I121
tp1049
tp1050
I00
s(g1047
g1048
(I122
I133
tp1051
tp1052
I01
ss(g1028
g1033
g1034
tp1053
I01
s(g1028
g1029
g1034
tp1054
(dp1055
((I116
I125
tp1056
(I235
I255
tp1057
(I86
I121
tp1058
tp1059
I01
s((I101
I115
tp1060
g1057
g1058
tp1061
I00
s(g1056
g1057
(I122
I133
tp1062
tp1063
I01
s(g1060
g1057
g1062
tp1064
I01
ss(g1032
g1033
g1030
tp1065
I01
ssssS'white'
p1066
(dp1067
((I205
I255
tp1068
(I216
I255
tp1069
(I113
I255
tp1070
tp1071
I01
ssS'tan'
p1072
(dp1073
((I159
I255
tp1074
(I133
I254
tp1075
(I39
I158
tp1076
tp1077
(dp1078
((I159
I203
tp1079
(I231
I254
tp1080
(I39
I89
tp1081
tp1082
I00
s((I204
I255
tp1083
g1080
(I90
I158
tp1084
tp1085
(dp1086
((I243
I255
tp1087
(I231
I254
tp1088
(I90
I113
tp1089
tp1090
I01
s(g1087
g1088
(I114
I158
tp1091
tp1092
I01
s((I204
I242
tp1093
g1088
g1089
tp1094
I00
s(g1093
g1088
g1091
tp1095
I00
ss(g1083
(I133
I230
tp1096
g1084
tp1097
(dp1098
((I204
I242
tp1099
(I160
I230
tp1100
(I114
I158
tp1101
tp1102
(dp1103
((I204
I242
tp1104
(I160
I177
tp1105
(I125
I158
tp1106
tp1107
I01
s(g1104
(I178
I230
tp1108
(I114
I124
tp1109
tp1110
I01
s(g1104
g1105
g1109
tp1111
I01
s(g1104
g1108
g1106
tp1112
(dp1113
((I204
I242
tp1114
(I220
I230
tp1115
(I125
I147
tp1116
tp1117
I01
s(g1114
(I178
I219
tp1118
g1116
tp1119
I01
s(g1114
g1115
(I148
I158
tp1120
tp1121
I01
s(g1114
g1118
g1120
tp1122
(dp1123
((I204
I242
tp1124
(I209
I219
tp1125
(I148
I158
tp1126
tp1127
I01
s(g1124
(I178
I208
tp1128
g1126
tp1129
I00
ssss((I243
I255
tp1130
(I133
I159
tp1131
g1101
tp1132
I01
s(g1099
g1131
(I90
I113
tp1133
tp1134
I01
s(g1130
g1100
g1133
tp1135
I01
s(g1130
g1100
g1101
tp1136
I01
s(g1099
g1131
g1101
tp1137
I01
s(g1130
g1131
g1133
tp1138
I01
s(g1099
g1100
g1133
tp1139
I01
ss(g1079
g1080
g1084
tp1140
(dp1141
((I159
I203
tp1142
(I231
I254
tp1143
(I90
I113
tp1144
tp1145
I01
s(g1142
g1143
(I114
I158
tp1146
tp1147
I00
ss(g1083
g1096
g1081
tp1148
(dp1149
((I204
I242
tp1150
(I160
I230
tp1151
(I39
I61
tp1152
tp1153
(dp1154
((I204
I242
tp1155
(I160
I177
tp1156
(I39
I61
tp1157
tp1158
I01
s(g1155
(I178
I230
tp1159
g1157
tp1160
I00
ss((I243
I255
tp1161
(I133
I159
tp1162
g1152
tp1163
I01
s(g1150
g1151
(I62
I89
tp1164
tp1165
I01
s(g1161
g1162
g1164
tp1166
I01
s(g1161
g1151
g1152
tp1167
I00
s(g1150
g1162
g1152
tp1168
I01
s(g1161
g1151
g1164
tp1169
(dp1170
((I243
I255
tp1171
(I160
I177
tp1172
(I62
I89
tp1173
tp1174
I01
s(g1171
(I178
I230
tp1175
g1173
tp1176
I00
ss(g1150
g1162
g1164
tp1177
I01
ss(g1079
g1096
g1084
tp1178
(dp1179
((I159
I203
tp1180
(I160
I230
tp1181
(I114
I158
tp1182
tp1183
I00
s(g1180
(I133
I159
tp1184
(I90
I113
tp1185
tp1186
I01
s(g1180
g1181
g1185
tp1187
I01
s(g1180
g1184
g1182
tp1188
I01
ss(g1079
g1096
g1081
tp1189
(dp1190
((I159
I203
tp1191
(I160
I230
tp1192
(I39
I61
tp1193
tp1194
I00
s(g1191
(I133
I159
tp1195
(I62
I89
tp1196
tp1197
I00
s(g1191
g1195
g1193
tp1198
I00
s(g1191
g1192
g1196
tp1199
I01
ss(g1083
g1080
g1081
tp1200
I00
sssS'red'
p1201
(dp1202
((I83
I255
tp1203
(I0
I128
tp1204
(I0
I144
tp1205
tp1206
(dp1207
((I119
I255
tp1208
(I0
I51
tp1209
(I73
I144
tp1210
tp1211
(dp1212
((I191
I255
tp1213
(I0
I51
tp1214
(I73
I110
tp1215
tp1216
I01
s((I119
I190
tp1217
g1214
g1215
tp1218
(dp1219
((I180
I190
tp1220
(I0
I51
tp1221
(I92
I110
tp1222
tp1223
I01
s(g1220
g1221
(I73
I91
tp1224
tp1225
I01
s((I119
I179
tp1226
g1221
g1222
tp1227
I00
s(g1226
g1221
g1224
tp1228
I00
ss(g1217
g1214
(I111
I144
tp1229
tp1230
(dp1231
((I180
I190
tp1232
(I0
I51
tp1233
(I111
I144
tp1234
tp1235
I01
s((I119
I179
tp1236
g1233
g1234
tp1237
I00
ss(g1213
g1214
g1229
tp1238
I01
ss(g1208
(I52
I128
tp1239
g1210
tp1240
(dp1241
((I191
I255
tp1242
(I52
I109
tp1243
(I111
I144
tp1244
tp1245
I01
s((I119
I190
tp1246
g1243
(I73
I110
tp1247
tp1248
(dp1249
((I119
I179
tp1250
(I52
I109
tp1251
(I73
I91
tp1252
tp1253
I00
s(g1250
g1251
(I92
I110
tp1254
tp1255
I00
s((I180
I190
tp1256
g1251
g1252
tp1257
I01
s(g1256
g1251
g1254
tp1258
I01
ss(g1242
(I110
I128
tp1259
g1244
tp1260
I01
s(g1242
g1243
g1247
tp1261
I01
s(g1246
g1259
g1244
tp1262
I00
s(g1242
g1259
g1247
tp1263
(dp1264
((I191
I255
tp1265
(I110
I128
tp1266
(I73
I91
tp1267
tp1268
I00
s(g1265
g1266
(I92
I110
tp1269
tp1270
I01
ss(g1246
g1259
g1247
tp1271
(dp1272
((I180
I190
tp1273
(I110
I128
tp1274
(I73
I91
tp1275
tp1276
I00
s((I119
I179
tp1277
g1274
(I92
I110
tp1278
tp1279
I00
s(g1277
g1274
g1275
tp1280
I00
s(g1273
g1274
g1278
tp1281
I01
ss(g1246
g1243
g1244
tp1282
I00
ss(g1208
g1209
(I0
I72
tp1283
tp1284
I01
s(g1208
g1239
g1283
tp1285
(dp1286
((I191
I255
tp1287
(I110
I128
tp1288
(I0
I72
tp1289
tp1290
I01
s((I119
I190
tp1291
g1288
g1289
tp1292
I00
s(g1291
(I52
I109
tp1293
g1289
tp1294
(dp1295
((I119
I179
tp1296
(I52
I109
tp1297
(I0
I72
tp1298
tp1299
(dp1300
((I119
I168
tp1301
(I52
I109
tp1302
(I0
I72
tp1303
tp1304
I00
s((I169
I179
tp1305
g1302
g1303
tp1306
I01
ss((I180
I190
tp1307
g1297
g1298
tp1308
I01
ss(g1287
g1293
g1289
tp1309
I01
ss((I83
I118
tp1310
g1239
g1283
tp1311
I00
s(g1310
g1239
g1210
tp1312
I00
s(g1310
g1209
g1210
tp1313
I00
s(g1310
g1209
g1283
tp1314
I01
sssS'black'
p1315
(dp1316
((I0
I60
tp1317
(I0
I58
tp1318
(I0
I58
tp1319
tp1320
I01
ss.