(dp0
S'blue'
p1
(dp2
((I0
I183
tp3
(I0
I219
tp4
(I53
I255
tp5
tp6
(dp7
((I0
I126
tp8
(I161
I219
tp9
(I185
I255
tp10
tp11
(dp12
((I0
I10
tp13
(I205
I219
tp14
(I185
I255
tp15
tp16
I01
s(g13
(I161
I204
tp17
g15
tp18
(dp19
((I0
I10
tp20
(I180
I204
tp21
(I185
I255
tp22
tp23
(dp24
((I0
I10
tp25
(I191
I204
tp26
(I185
I255
tp27
tp28
I01
s(g25
(I180
I190
tp29
g27
tp30
I00
ss(g20
(I161
I179
tp31
g22
tp32
I01
ss((I11
I126
tp33
g17
g15
tp34
I01
s(g33
g14
g15
tp35
I01
ss(g8
(I0
I160
tp36
(I53
I184
tp37
tp38
I01
s(g8
g36
g10
tp39
I01
s((I127
I183
tp40
g36
g37
tp41
(dp42
((I127
I161
tp43
(I11
I160
tp44
(I79
I184
tp45
tp46
I00
s((I162
I183
tp47
g44
(I53
I78
tp48
tp49
I00
s(g47
(I0
I10
tp50
g48
tp51
I01
s(g47
g44
g45
tp52
I00
s(g47
g50
g45
tp53
I01
s(g43
g50
g48
tp54
(dp55
((I142
I161
tp56
(I0
I10
tp57
(I53
I78
tp58
tp59
I01
s((I127
I141
tp60
g57
g58
tp61
I00
ss(g43
g44
g48
tp62
I00
s(g43
g50
g45
tp63
(dp64
((I127
I141
tp65
(I0
I10
tp66
(I79
I184
tp67
tp68
I00
s((I142
I161
tp69
g66
g67
tp70
I01
sss(g8
g9
g37
tp71
(dp72
((I0
I10
tp73
(I161
I204
tp74
(I53
I78
tp75
tp76
I01
s((I11
I126
tp77
(I205
I219
tp78
g75
tp79
I01
s(g77
g78
(I79
I184
tp80
tp81
I00
s(g73
g78
g75
tp82
I01
s(g73
g78
g80
tp83
I01
s(g77
g74
g80
tp84
I00
s(g73
g74
g80
tp85
I00
s(g77
g74
g75
tp86
(dp87
((I11
I126
tp88
(I161
I179
tp89
(I53
I78
tp90
tp91
I00
s(g88
(I180
I204
tp92
g90
tp93
I01
sss(g40
g9
g37
tp94
(dp95
((I127
I161
tp96
(I161
I204
tp97
(I53
I78
tp98
tp99
I00
s((I162
I183
tp100
(I205
I219
tp101
(I79
I184
tp102
tp103
I00
s(g100
g97
g102
tp104
I00
s(g100
g101
g98
tp105
I01
s(g96
g101
g102
tp106
I00
s(g100
g97
g98
tp107
I00
s(g96
g101
g98
tp108
I00
s(g96
g97
g102
tp109
I00
ss(g40
g9
g10
tp110
(dp111
((I162
I183
tp112
(I161
I204
tp113
(I185
I255
tp114
tp115
I00
s(g112
(I205
I219
tp116
g114
tp117
I01
s((I127
I161
tp118
g116
g114
tp119
I01
s(g118
g113
g114
tp120
I01
ss(g40
g36
g10
tp121
(dp122
((I127
I161
tp123
(I0
I10
tp124
(I185
I255
tp125
tp126
(dp127
((I142
I161
tp128
(I0
I10
tp129
(I185
I255
tp130
tp131
I01
s((I127
I141
tp132
g129
g130
tp133
I00
ss((I162
I183
tp134
g124
g125
tp135
I01
s(g134
(I11
I160
tp136
g125
tp137
I01
s(g123
g136
g125
tp138
I01
ssssS'pink'
p139
(dp140
((I171
I255
tp141
(I0
I206
tp142
(I72
I255
tp143
tp144
(dp145
((I196
I255
tp146
(I118
I206
tp147
(I100
I255
tp148
tp149
(dp150
((I196
I224
tp151
(I131
I206
tp152
(I100
I255
tp153
tp154
(dp155
((I212
I224
tp156
(I180
I206
tp157
(I100
I255
tp158
tp159
I01
s((I196
I211
tp160
g157
g158
tp161
I01
s(g160
(I131
I179
tp162
g158
tp163
I00
s(g156
g162
g158
tp164
I01
ss(g151
(I118
I130
tp165
g153
tp166
I01
s((I225
I255
tp167
g165
g153
tp168
I01
s(g167
g152
g153
tp169
I01
ss((I171
I195
tp170
(I0
I117
tp171
g148
tp172
(dp173
((I171
I195
tp174
(I0
I20
tp175
(I100
I255
tp176
tp177
I01
s(g174
(I21
I117
tp178
g176
tp179
I00
ss(g146
g147
(I72
I99
tp180
tp181
(dp182
((I196
I224
tp183
(I131
I206
tp184
(I72
I99
tp185
tp186
I00
s(g183
(I118
I130
tp187
g185
tp188
I00
s((I225
I255
tp189
g187
g185
tp190
I01
s(g189
g184
g185
tp191
I00
ss(g170
g171
g180
tp192
(dp193
((I171
I195
tp194
(I0
I20
tp195
(I72
I99
tp196
tp197
I01
s(g194
(I21
I117
tp198
g196
tp199
I00
ss(g170
g147
g148
tp200
I00
s(g146
g171
g180
tp201
(dp202
((I225
I255
tp203
(I0
I20
tp204
(I72
I99
tp205
tp206
I01
s((I196
I224
tp207
(I21
I117
tp208
g205
tp209
(dp210
((I212
I224
tp211
(I21
I34
tp212
(I72
I99
tp213
tp214
I00
s((I196
I211
tp215
g212
g213
tp216
I00
s(g215
(I35
I117
tp217
g213
tp218
(dp219
((I196
I211
tp220
(I35
I107
tp221
(I72
I99
tp222
tp223
(dp224
((I196
I211
tp225
(I35
I73
tp226
(I72
I99
tp227
tp228
(dp229
((I196
I211
tp230
(I35
I61
tp231
(I72
I99
tp232
tp233
(dp234
((I196
I211
tp235
(I47
I61
tp236
(I72
I99
tp237
tp238
I00
s(g235
(I35
I46
tp239
g237
tp240
I01
ss(g230
(I62
I73
tp241
g232
tp242
I00
ss(g225
(I74
I107
tp243
g227
tp244
I01
ss(g220
(I108
I117
tp245
g222
tp246
I00
ss(g211
g217
g213
tp247
I00
ss(g203
g208
g205
tp248
I00
s(g207
g204
g205
tp249
(dp250
((I196
I211
tp251
(I0
I20
tp252
(I72
I99
tp253
tp254
I00
s((I212
I224
tp255
g252
g253
tp256
I01
sss(g170
g147
g180
tp257
I00
s(g146
g171
g148
tp258
I01
sssS'brown'
p259
(dp260
((I33
I225
tp261
(I0
I173
tp262
(I0
I128
tp263
tp264
(dp265
((I33
I96
tp266
(I35
I173
tp267
(I0
I83
tp268
tp269
(dp270
((I33
I96
tp271
(I147
I173
tp272
(I0
I83
tp273
tp274
I01
s(g271
(I35
I146
tp275
g273
tp276
I00
ss(g266
g267
(I84
I128
tp277
tp278
I00
s(g266
(I0
I34
tp279
g268
tp280
I01
s((I97
I225
tp281
g279
g277
tp282
I00
s(g266
g279
g277
tp283
I01
s(g281
g267
g277
tp284
(dp285
((I97
I205
tp286
(I35
I146
tp287
(I84
I128
tp288
tp289
I00
s((I206
I225
tp290
g287
g288
tp291
I01
s(g286
(I147
I173
tp292
g288
tp293
I01
s(g290
g292
g288
tp294
I01
ss(g281
g267
g268
tp295
I01
s(g281
g279
g268
tp296
(dp297
((I206
I225
tp298
(I0
I34
tp299
(I0
I83
tp300
tp301
I01
s((I97
I205
tp302
g299
g300
tp303
I00
ssssS'gray'
p304
(dp305
((I11
I236
tp306
(I28
I222
tp307
(I17
I255
tp308
tp309
(dp310
((I11
I43
tp311
(I28
I49
tp312
(I44
I255
tp313
tp314
I01
s((I44
I236
tp315
g312
(I17
I43
tp316
tp317
(dp318
((I44
I206
tp319
(I28
I49
tp320
(I17
I43
tp321
tp322
I00
s((I207
I236
tp323
g320
g321
tp324
(dp325
((I207
I226
tp326
(I28
I49
tp327
(I17
I43
tp328
tp329
I01
s((I227
I236
tp330
g327
g328
tp331
I00
sss(g315
g312
g313
tp332
I00
s(g311
(I50
I222
tp333
g313
tp334
I00
s(g315
g333
g316
tp335
I00
s(g315
g333
g313
tp336
(dp337
((I44
I206
tp338
(I195
I222
tp339
(I44
I255
tp340
tp341
(dp342
((I115
I206
tp343
(I212
I222
tp344
(I44
I255
tp345
tp346
I01
s((I44
I114
tp347
(I195
I211
tp348
g345
tp349
I00
s(g347
g344
g345
tp350
I01
s(g343
g348
g345
tp351
I00
ss((I207
I236
tp352
g339
g340
tp353
(dp354
((I227
I236
tp355
(I195
I211
tp356
(I44
I255
tp357
tp358
I00
s(g355
(I212
I222
tp359
g357
tp360
I01
s((I207
I226
tp361
g359
g357
tp362
I01
s(g361
g356
g357
tp363
I01
ss(g338
(I50
I194
tp364
g340
tp365
(dp366
((I44
I114
tp367
(I147
I194
tp368
(I44
I255
tp369
tp370
(dp371
((I44
I114
tp372
(I147
I184
tp373
(I44
I255
tp374
tp375
I00
s(g372
(I185
I194
tp376
g374
tp377
I01
ss(g367
(I50
I146
tp378
g369
tp379
I01
s((I115
I206
tp380
g378
g369
tp381
I01
s(g380
g368
g369
tp382
I01
ss(g352
g364
g340
tp383
(dp384
((I227
I236
tp385
(I50
I146
tp386
(I44
I255
tp387
tp388
I01
s(g385
(I147
I194
tp389
g387
tp390
I00
s((I207
I226
tp391
g386
g387
tp392
I00
s(g391
g389
g387
tp393
I00
sss(g311
g333
g316
tp394
I00
s(g311
g312
g316
tp395
I01
sssS'yellow'
p396
(dp397
((I152
I255
tp398
(I150
I255
tp399
(I0
I141
tp400
tp401
(dp402
((I246
I255
tp403
(I150
I219
tp404
(I0
I80
tp405
tp406
I01
s((I152
I245
tp407
(I220
I255
tp408
(I81
I141
tp409
tp410
(dp411
((I152
I165
tp412
(I220
I237
tp413
(I81
I141
tp414
tp415
I01
s((I166
I245
tp416
g413
g414
tp417
(dp418
((I166
I226
tp419
(I220
I237
tp420
(I81
I141
tp421
tp422
I00
s((I227
I245
tp423
g420
g421
tp424
I01
ss(g412
(I238
I255
tp425
g414
tp426
I01
s(g416
g425
g414
tp427
I01
ss(g403
g404
g409
tp428
I01
s(g407
g404
g405
tp429
I01
s(g407
g408
g405
tp430
I01
s(g403
g408
g409
tp431
I01
s(g407
g404
g409
tp432
I00
s(g403
g408
g405
tp433
I01
sssS'green'
p434
(dp435
((I0
I224
tp436
(I33
I255
tp437
(I0
I252
tp438
tp439
(dp440
((I0
I156
tp441
(I206
I255
tp442
(I0
I126
tp443
tp444
I01
s((I157
I224
tp445
g442
(I127
I252
tp446
tp447
(dp448
((I206
I224
tp449
(I206
I255
tp450
(I127
I157
tp451
tp452
(dp453
((I206
I224
tp454
(I206
I255
tp455
(I140
I157
tp456
tp457
I00
s(g454
g455
(I127
I139
tp458
tp459
I01
ss((I157
I205
tp460
g450
g451
tp461
I01
s(g449
g450
(I158
I252
tp462
tp463
I00
s(g460
g450
g462
tp464
I00
ss(g445
g442
g443
tp465
I01
s(g445
(I33
I205
tp466
g443
tp467
I00
s(g445
g466
g446
tp468
I00
s(g441
g466
g443
tp469
(dp470
((I0
I156
tp471
(I96
I205
tp472
(I0
I126
tp473
tp474
I01
s(g471
(I33
I95
tp475
g473
tp476
(dp477
((I0
I156
tp478
(I33
I85
tp479
(I0
I126
tp480
tp481
(dp482
((I0
I156
tp483
(I52
I85
tp484
(I0
I126
tp485
tp486
(dp487
((I0
I156
tp488
(I52
I62
tp489
(I0
I126
tp490
tp491
I01
s(g488
(I63
I85
tp492
g490
tp493
(dp494
((I0
I156
tp495
(I75
I85
tp496
(I0
I126
tp497
tp498
I00
s(g495
(I63
I74
tp499
g497
tp500
I01
sss(g483
(I33
I51
tp501
g485
tp502
I01
ss(g478
(I86
I95
tp503
g480
tp504
I01
sss(g441
g442
g446
tp505
(dp506
((I0
I156
tp507
(I206
I255
tp508
(I158
I252
tp509
tp510
I00
s(g507
g508
(I127
I157
tp511
tp512
I01
ss(g441
g466
g446
tp513
I00
sssS'violet'
p514
(dp515
((I11
I219
tp516
(I0
I177
tp517
(I17
I255
tp518
tp519
(dp520
((I11
I64
tp521
(I0
I82
tp522
(I112
I255
tp523
tp524
(dp525
((I47
I64
tp526
(I0
I45
tp527
(I112
I255
tp528
tp529
I00
s(g526
(I46
I82
tp530
g528
tp531
I01
s((I11
I46
tp532
g530
g528
tp533
I00
s(g532
g527
g528
tp534
I00
ss((I65
I219
tp535
(I83
I177
tp536
g523
tp537
(dp538
((I65
I201
tp539
(I83
I154
tp540
(I112
I255
tp541
tp542
I00
s((I202
I219
tp543
(I155
I177
tp544
g541
tp545
I01
s(g539
g544
g541
tp546
I00
s(g543
g540
g541
tp547
I01
ss(g535
g536
(I17
I111
tp548
tp549
(dp550
((I202
I219
tp551
(I83
I154
tp552
(I17
I47
tp553
tp554
I00
s(g551
(I155
I177
tp555
g553
tp556
I01
s(g551
g555
(I48
I111
tp557
tp558
I00
s((I65
I201
tp559
g555
g557
tp560
I00
s(g559
g552
g553
tp561
I00
s(g559
g555
g553
tp562
I00
s(g559
g552
g557
tp563
I00
s(g551
g552
g557
tp564
I01
ss(g521
g536
g523
tp565
I00
s(g521
g522
g548
tp566
I01
s(g535
g522
g523
tp567
I01
s(g535
g522
g548
tp568
(dp569
((I65
I201
tp570
(I0
I45
tp571
(I48
I111
tp572
tp573
I01
s((I202
I219
tp574
g571
(I17
I47
tp575
tp576
I01
s(g570
(I46
I82
tp577
g572
tp578
(dp579
((I65
I104
tp580
(I46
I82
tp581
(I48
I111
tp582
tp583
I00
s((I105
I201
tp584
g581
g582
tp585
I01
ss(g570
g577
g575
tp586
I00
s(g570
g571
g575
tp587
(dp588
((I65
I104
tp589
(I0
I45
tp590
(I17
I47
tp591
tp592
I01
s((I105
I201
tp593
g590
g591
tp594
I00
ss(g574
g577
g575
tp595
I01
s(g574
g571
g572
tp596
I01
s(g574
g577
g572
tp597
I01
ss(g521
g536
g548
tp598
I00
sssS'orange'
p599
(dp600
((I169
I255
tp601
(I19
I202
tp602
(I0
I94
tp603
tp604
(dp605
((I169
I224
tp606
(I69
I202
tp607
(I51
I94
tp608
tp609
(dp610
((I169
I194
tp611
(I176
I202
tp612
(I75
I94
tp613
tp614
I01
s((I195
I224
tp615
g612
g613
tp616
I01
s(g611
g612
(I51
I74
tp617
tp618
I01
s(g611
(I69
I175
tp619
g617
tp620
I00
s(g611
g619
g613
tp621
(dp622
((I169
I194
tp623
(I69
I115
tp624
(I75
I94
tp625
tp626
I01
s(g623
(I116
I175
tp627
g625
tp628
I00
ss(g615
g612
g617
tp629
(dp630
((I209
I224
tp631
(I176
I202
tp632
(I51
I74
tp633
tp634
I01
s((I195
I208
tp635
g632
g633
tp636
I00
ss(g615
g619
g617
tp637
(dp638
((I209
I224
tp639
(I69
I115
tp640
(I51
I74
tp641
tp642
I00
s(g639
(I116
I175
tp643
g641
tp644
I01
s((I195
I208
tp645
g640
g641
tp646
I01
s(g645
g643
g641
tp647
I00
ss(g615
g619
g613
tp648
(dp649
((I195
I208
tp650
(I69
I115
tp651
(I75
I94
tp652
tp653
I01
s(g650
(I116
I175
tp654
g652
tp655
(dp656
((I195
I208
tp657
(I116
I150
tp658
(I75
I94
tp659
tp660
I00
s(g657
(I151
I175
tp661
g659
tp662
I01
ss((I209
I224
tp663
g651
g652
tp664
I01
s(g663
g654
g652
tp665
I01
sss((I225
I255
tp666
g607
g608
tp667
I01
s(g666
(I19
I68
tp668
g608
tp669
(dp670
((I245
I255
tp671
(I19
I68
tp672
(I75
I94
tp673
tp674
I01
s((I225
I244
tp675
g672
(I51
I74
tp676
tp677
I00
s(g671
g672
g676
tp678
I00
s(g675
g672
g673
tp679
I00
ss(g666
g607
(I0
I50
tp680
tp681
(dp682
((I225
I244
tp683
(I176
I202
tp684
(I0
I24
tp685
tp686
I00
s(g683
(I69
I175
tp687
g685
tp688
I01
s((I245
I255
tp689
g687
(I25
I50
tp690
tp691
I01
s(g683
g684
g690
tp692
(dp693
((I225
I244
tp694
(I176
I202
tp695
(I25
I39
tp696
tp697
I01
s(g694
g695
(I40
I50
tp698
tp699
I00
ss(g689
g687
g685
tp700
I01
s(g683
g687
g690
tp701
I01
s(g689
g684
g690
tp702
(dp703
((I245
I255
tp704
(I176
I202
tp705
(I40
I50
tp706
tp707
I01
s(g704
g705
(I25
I39
tp708
tp709
I00
ss(g689
g684
g685
tp710
(dp711
((I245
I255
tp712
(I176
I202
tp713
(I0
I14
tp714
tp715
I00
s(g712
g713
(I15
I24
tp716
tp717
I01
sss(g666
g668
g680
tp718
(dp719
((I245
I255
tp720
(I19
I68
tp721
(I0
I24
tp722
tp723
(dp724
((I245
I255
tp725
(I19
I68
tp726
(I15
I24
tp727
tp728
I01
s(g725
g726
(I0
I14
tp729
tp730
I00
ss((I225
I244
tp731
g721
g722
tp732
(dp733
((I225
I244
tp734
(I19
I68
tp735
(I15
I24
tp736
tp737
I01
s(g734
g735
(I0
I14
tp738
tp739
I00
ss(g731
g721
(I25
I50
tp740
tp741
I00
s(g720
g721
g740
tp742
(dp743
((I245
I255
tp744
(I19
I68
tp745
(I40
I50
tp746
tp747
I01
s(g744
g745
(I25
I39
tp748
tp749
I00
sss(g606
g668
g680
tp750
(dp751
((I169
I194
tp752
(I19
I68
tp753
(I0
I24
tp754
tp755
I01
s((I195
I224
tp756
g753
(I25
I50
tp757
tp758
(dp759
((I209
I224
tp760
(I19
I68
tp761
(I25
I39
tp762
tp763
I00
s((I195
I208
tp764
g761
(I40
I50
tp765
tp766
I01
s(g760
g761
g765
tp767
I01
s(g764
g761
g762
tp768
I00
ss(g756
g753
g754
tp769
I01
s(g752
g753
g757
tp770
I00
ss(g606
g668
g608
tp771
(dp772
((I169
I194
tp773
(I19
I68
tp774
(I51
I74
tp775
tp776
I00
s((I195
I224
tp777
g774
(I75
I94
tp778
tp779
I00
s(g773
g774
g778
tp780
I01
s(g777
g774
g775
tp781
I00
ss(g606
g607
g680
tp782
(dp783
((I169
I194
tp784
(I69
I175
tp785
(I0
I24
tp786
tp787
(dp788
((I169
I194
tp789
(I69
I115
tp790
(I15
I24
tp791
tp792
I01
s(g789
(I116
I175
tp793
(I0
I14
tp794
tp795
I00
s(g789
g790
g794
tp796
I01
s(g789
g793
g791
tp797
I00
ss((I195
I224
tp798
(I176
I202
tp799
g786
tp800
(dp801
((I195
I208
tp802
(I176
I202
tp803
(I15
I24
tp804
tp805
I00
s((I209
I224
tp806
g803
g804
tp807
I01
s(g802
g803
(I0
I14
tp808
tp809
I01
s(g806
g803
g808
tp810
I00
ss(g798
g799
(I25
I50
tp811
tp812
I01
s(g784
g799
g811
tp813
(dp814
((I169
I194
tp815
(I176
I202
tp816
(I40
I50
tp817
tp818
I01
s(g815
g816
(I25
I39
tp819
tp820
I00
ss(g798
g785
g786
tp821
I01
s(g784
g785
g811
tp822
(dp823
((I169
I194
tp824
(I69
I115
tp825
(I25
I39
tp826
tp827
I00
s(g824
(I116
I175
tp828
g826
tp829
I00
s(g824
g828
(I40
I50
tp830
tp831
I01
s(g824
g825
g830
tp832
I01
ss(g798
g785
g811
tp833
(dp834
((I209
I224
tp835
(I69
I115
tp836
(I25
I39
tp837
tp838
I01
s((I195
I208
tp839
g836
g837
tp840
I01
s(g835
(I116
I175
tp841
(I40
I50
tp842
tp843
(dp844
((I209
I224
tp845
(I116
I150
tp846
(I40
I50
tp847
tp848
I01
s(g845
(I151
I175
tp849
g847
tp850
I00
ss(g839
g841
g842
tp851
I01
s(g839
g841
g837
tp852
I01
s(g835
g836
g842
tp853
I01
s(g835
g841
g837
tp854
I01
s(g839
g836
g842
tp855
I01
ss(g784
g799
g786
tp856
(dp857
((I169
I194
tp858
(I176
I202
tp859
(I15
I24
tp860
tp861
I00
s(g858
g859
(I0
I14
tp862
tp863
I01
sssssS'cyan'
p864
(dp865
((I0
I220
tp866
(I77
I255
tp867
(I60
I255
tp868
tp869
(dp870
((I0
I100
tp871
(I194
I255
tp872
(I60
I155
tp873
tp874
I01
s(g871
(I77
I193
tp875
(I156
I255
tp876
tp877
(dp878
((I0
I100
tp879
(I77
I134
tp880
(I156
I255
tp881
tp882
I00
s(g879
(I135
I193
tp883
g881
tp884
I01
ss((I101
I220
tp885
g872
g876
tp886
(dp887
((I126
I220
tp888
(I194
I234
tp889
(I156
I255
tp890
tp891
(dp892
((I201
I220
tp893
(I194
I234
tp894
(I156
I255
tp895
tp896
I00
s((I126
I200
tp897
g894
g895
tp898
(dp899
((I126
I189
tp900
(I194
I234
tp901
(I156
I255
tp902
tp903
(dp904
((I177
I189
tp905
(I194
I234
tp906
(I156
I255
tp907
tp908
I01
s((I126
I176
tp909
g906
g907
tp910
I00
ss((I190
I200
tp911
g901
g902
tp912
I01
sss((I101
I125
tp913
(I235
I255
tp914
g890
tp915
I01
s(g913
g889
g890
tp916
I01
s(g888
g914
g890
tp917
I01
ss(g871
g872
g876
tp918
I01
s(g871
g875
g873
tp919
I01
s(g885
g875
g873
tp920
I00
s(g885
g875
g876
tp921
I00
s(g885
g872
g873
tp922
(dp923
((I101
I125
tp924
(I194
I234
tp925
(I83
I155
tp926
tp927
I01
s((I126
I220
tp928
g925
(I60
I82
tp929
tp930
(dp931
((I126
I200
tp932
(I194
I234
tp933
(I60
I82
tp934
tp935
I00
s((I201
I220
tp936
g933
g934
tp937
I01
ss(g928
(I235
I255
tp938
g926
tp939
I00
s(g928
g938
g929
tp940
I00
s(g924
g925
g929
tp941
I01
s(g928
g925
g926
tp942
I00
s(g924
g938
g926
tp943
I01
s(g924
g938
g929
tp944
I01
ssssS'white'
p945
(dp946
((I205
I255
tp947
(I216
I255
tp948
(I113
I255
tp949
tp950
(dp951
((I205
I238
tp952
(I216
I245
tp953
(I230
I255
tp954
tp955
I01
s(g952
g953
(I113
I229
tp956
tp957
I00
s((I239
I255
tp958
(I246
I255
tp959
g956
tp960
I01
s(g958
g959
g954
tp961
I01
s(g952
g959
g956
tp962
I01
s(g952
g959
g954
tp963
I01
s(g958
g953
g956
tp964
I01
s(g958
g953
g954
tp965
I01
sssS'tan'
p966
(dp967
((I200
I247
tp968
(I155
I222
tp969
(I89
I177
tp970
tp971
(dp972
((I211
I247
tp973
(I155
I171
tp974
(I89
I129
tp975
tp976
(dp977
((I211
I247
tp978
(I155
I171
tp979
(I103
I129
tp980
tp981
I00
s(g978
g979
(I89
I102
tp982
tp983
I01
ss((I200
I210
tp984
(I172
I222
tp985
(I130
I177
tp986
tp987
(dp988
((I200
I210
tp989
(I172
I222
tp990
(I130
I152
tp991
tp992
I01
s(g989
g990
(I153
I177
tp993
tp994
(dp995
((I200
I210
tp996
(I172
I222
tp997
(I165
I177
tp998
tp999
I00
s(g996
g997
(I153
I164
tp1000
tp1001
I01
sss(g984
g974
g986
tp1002
I00
s(g973
g985
g975
tp1003
I01
s(g973
g974
g986
tp1004
(dp1005
((I211
I247
tp1006
(I155
I171
tp1007
(I153
I177
tp1008
tp1009
I00
s(g1006
g1007
(I130
I152
tp1010
tp1011
I01
ss(g984
g974
g975
tp1012
(dp1013
((I200
I210
tp1014
(I155
I171
tp1015
(I103
I129
tp1016
tp1017
I00
s(g1014
g1015
(I89
I102
tp1018
tp1019
I01
ss(g973
g985
g986
tp1020
I01
s(g984
g985
g975
tp1021
I01
sssS'red'
p1022
(dp1023
((I83
I255
tp1024
(I0
I128
tp1025
(I0
I144
tp1026
tp1027
(dp1028
((I119
I255
tp1029
(I0
I51
tp1030
(I111
I144
tp1031
tp1032
(dp1033
((I191
I255
tp1034
(I0
I51
tp1035
(I111
I144
tp1036
tp1037
I01
s((I119
I190
tp1038
g1035
g1036
tp1039
(dp1040
((I180
I190
tp1041
(I0
I51
tp1042
(I111
I144
tp1043
tp1044
I01
s((I119
I179
tp1045
g1042
g1043
tp1046
I00
sss((I83
I118
tp1047
(I52
I128
tp1048
g1031
tp1049
I00
s(g1029
g1048
g1031
tp1050
(dp1051
((I119
I190
tp1052
(I52
I116
tp1053
(I111
I144
tp1054
tp1055
I00
s((I191
I255
tp1056
g1053
g1054
tp1057
I00
s(g1056
(I117
I128
tp1058
g1054
tp1059
I01
s(g1052
g1058
g1054
tp1060
I01
ss(g1029
g1048
(I0
I110
tp1061
tp1062
(dp1063
((I191
I255
tp1064
(I52
I116
tp1065
(I0
I110
tp1066
tp1067
I01
s(g1064
(I117
I128
tp1068
g1066
tp1069
I01
s((I119
I190
tp1070
g1068
g1066
tp1071
I00
s(g1070
g1065
g1066
tp1072
(dp1073
((I180
I190
tp1074
(I52
I116
tp1075
(I0
I110
tp1076
tp1077
I01
s((I119
I179
tp1078
g1075
g1076
tp1079
(dp1080
((I169
I179
tp1081
(I52
I116
tp1082
(I0
I110
tp1083
tp1084
I01
s((I119
I168
tp1085
g1082
g1083
tp1086
I00
ssss(g1029
g1030
g1061
tp1087
I01
s(g1047
g1030
g1031
tp1088
I01
s(g1047
g1030
g1061
tp1089
I01
s(g1047
g1048
g1061
tp1090
I00
sssS'black'
p1091
(dp1092
((I0
I60
tp1093
(I0
I58
tp1094
(I0
I58
tp1095
tp1096
(dp1097
((I48
I60
tp1098
(I43
I58
tp1099
(I23
I58
tp1100
tp1101
I00
s(g1098
g1099
(I0
I22
tp1102
tp1103
(dp1104
((I48
I60
tp1105
(I43
I58
tp1106
(I0
I12
tp1107
tp1108
I00
s(g1105
g1106
(I13
I22
tp1109
tp1110
I01
ss(g1098
(I0
I42
tp1111
g1102
tp1112
(dp1113
((I48
I60
tp1114
(I0
I42
tp1115
(I0
I12
tp1116
tp1117
I00
s(g1114
g1115
(I13
I22
tp1118
tp1119
I01
ss((I0
I47
tp1120
g1111
g1100
tp1121
I01
s(g1120
g1111
g1102
tp1122
I01
s(g1120
g1099
g1102
tp1123
I00
s(g1098
g1111
g1100
tp1124
(dp1125
((I48
I60
tp1126
(I0
I42
tp1127
(I23
I47
tp1128
tp1129
I01
s(g1126
g1127
(I48
I58
tp1130
tp1131
I00
ss(g1120
g1099
g1100
tp1132
(dp1133
((I0
I47
tp1134
(I43
I58
tp1135
(I23
I47
tp1136
tp1137
I00
s(g1134
g1135
(I48
I58
tp1138
tp1139
I01
ssss.