(dp0
S'blue'
p1
(dp2
((I0
I183
tp3
(I0
I219
tp4
(I55
I255
tp5
tp6
(dp7
((I133
I183
tp8
(I161
I219
tp9
(I149
I255
tp10
tp11
(dp12
((I133
I161
tp13
(I205
I219
tp14
(I149
I255
tp15
tp16
I01
s(g13
(I161
I204
tp17
g15
tp18
(dp19
((I133
I143
tp20
(I161
I179
tp21
(I149
I255
tp22
tp23
I00
s(g20
(I180
I204
tp24
g22
tp25
I00
s((I144
I161
tp26
g24
g22
tp27
I01
s(g26
g21
g22
tp28
I01
ss((I162
I183
tp29
g17
g15
tp30
I00
s(g29
g14
g15
tp31
I01
ss((I0
I132
tp32
(I0
I160
tp33
(I55
I148
tp34
tp35
(dp36
((I0
I132
tp37
(I0
I46
tp38
(I75
I148
tp39
tp40
(dp41
((I0
I132
tp42
(I35
I46
tp43
(I75
I148
tp44
tp45
I01
s(g42
(I0
I34
tp46
g44
tp47
(dp48
((I0
I132
tp49
(I19
I34
tp50
(I75
I148
tp51
tp52
I01
s(g49
(I0
I18
tp53
g51
tp54
I00
sss(g37
(I47
I160
tp55
(I55
I74
tp56
tp57
I01
s(g37
g38
g56
tp58
(dp59
((I0
I132
tp60
(I0
I34
tp61
(I55
I74
tp62
tp63
I00
s(g60
(I35
I46
tp64
g62
tp65
I01
ss(g37
g55
g39
tp66
I01
ss(g8
g33
g34
tp67
I00
s(g32
g33
g10
tp68
I01
s(g32
g9
g34
tp69
I00
s(g8
g33
g10
tp70
(dp71
((I133
I161
tp72
(I0
I46
tp73
(I149
I255
tp74
tp75
I00
s((I162
I183
tp76
(I47
I160
tp77
g74
tp78
I01
s(g72
g77
g74
tp79
I01
s(g76
g73
g74
tp80
I00
ss(g8
g9
g34
tp81
(dp82
((I162
I183
tp83
(I161
I204
tp84
(I75
I148
tp85
tp86
I00
s(g83
(I205
I219
tp87
g85
tp88
I01
s(g83
g87
(I55
I74
tp89
tp90
I01
s((I133
I161
tp91
g84
g89
tp92
I00
s(g91
g84
g85
tp93
I00
s(g91
g87
g85
tp94
I00
s(g91
g87
g89
tp95
I00
s(g83
g84
g89
tp96
I00
ss(g32
g9
g10
tp97
I01
sssS'pink'
p98
(dp99
((I171
I255
tp100
(I0
I206
tp101
(I72
I255
tp102
tp103
(dp104
((I171
I205
tp105
(I0
I206
tp106
(I72
I99
tp107
tp108
I00
s((I206
I255
tp109
g106
g107
tp110
I00
s(g109
g106
(I100
I255
tp111
tp112
I01
s(g105
g106
g111
tp113
(dp114
((I196
I205
tp115
(I0
I206
tp116
(I100
I255
tp117
tp118
I01
s((I171
I195
tp119
g116
g117
tp120
I00
ssssS'brown'
p121
(dp122
((I33
I225
tp123
(I0
I173
tp124
(I0
I128
tp125
tp126
(dp127
((I33
I96
tp128
(I35
I173
tp129
(I0
I83
tp130
tp131
(dp132
((I33
I96
tp133
(I147
I173
tp134
(I0
I83
tp135
tp136
I01
s(g133
(I35
I146
tp137
g135
tp138
I00
ss(g128
g129
(I84
I128
tp139
tp140
I00
s(g128
(I0
I34
tp141
g130
tp142
I01
s((I97
I225
tp143
g141
g139
tp144
I00
s(g128
g141
g139
tp145
I01
s(g143
g129
g139
tp146
(dp147
((I97
I205
tp148
(I35
I146
tp149
(I84
I128
tp150
tp151
I00
s((I206
I225
tp152
g149
g150
tp153
I01
s(g148
(I147
I173
tp154
g150
tp155
I01
s(g152
g154
g150
tp156
I01
ss(g143
g129
g130
tp157
I01
s(g143
g141
g130
tp158
(dp159
((I206
I225
tp160
(I0
I34
tp161
(I0
I83
tp162
tp163
I01
s((I97
I205
tp164
g161
g162
tp165
I00
ssssS'gray'
p166
(dp167
((I11
I236
tp168
(I28
I222
tp169
(I17
I251
tp170
tp171
(dp172
((I11
I43
tp173
(I110
I222
tp174
(I44
I251
tp175
tp176
I00
s(g173
(I28
I109
tp177
(I17
I43
tp178
tp179
I00
s((I44
I236
tp180
g177
g175
tp181
(dp182
((I44
I224
tp183
(I28
I46
tp184
(I44
I251
tp185
tp186
I01
s((I225
I236
tp187
g184
g185
tp188
I01
s(g187
(I47
I109
tp189
g185
tp190
I00
s(g183
g189
g185
tp191
(dp192
((I44
I224
tp193
(I62
I109
tp194
(I44
I251
tp195
tp196
(dp197
((I44
I224
tp198
(I75
I109
tp199
(I44
I251
tp200
tp201
(dp202
((I44
I224
tp203
(I96
I109
tp204
(I44
I251
tp205
tp206
I01
s(g203
(I75
I95
tp207
g205
tp208
I00
ss(g198
(I62
I74
tp209
g200
tp210
I01
ss(g193
(I47
I61
tp211
g195
tp212
I01
sss(g180
g177
g178
tp213
(dp214
((I44
I224
tp215
(I47
I109
tp216
(I17
I43
tp217
tp218
I00
s((I225
I236
tp219
(I28
I46
tp220
g217
tp221
I01
s(g215
g220
g217
tp222
I00
s(g219
g216
g217
tp223
I00
ss(g173
g177
g175
tp224
I00
s(g180
g174
g178
tp225
I00
s(g173
g174
g178
tp226
I00
s(g180
g174
g175
tp227
(dp228
((I225
I236
tp229
(I182
I222
tp230
(I44
I251
tp231
tp232
I01
s((I44
I224
tp233
g230
g231
tp234
I01
s(g229
(I110
I181
tp235
g231
tp236
I00
s(g233
g235
g231
tp237
I01
ssssS'yellow'
p238
(dp239
((I152
I255
tp240
(I150
I255
tp241
(I0
I141
tp242
tp243
(dp244
((I166
I255
tp245
(I150
I185
tp246
(I43
I141
tp247
tp248
I00
s((I152
I165
tp249
(I186
I255
tp250
g247
tp251
I00
s(g249
g246
g247
tp252
(dp253
((I152
I165
tp254
(I150
I167
tp255
(I43
I94
tp256
tp257
I01
s(g254
(I168
I185
tp258
(I95
I141
tp259
tp260
I00
s(g254
g258
g256
tp261
I01
s(g254
g255
g259
tp262
I00
ss(g249
g250
(I0
I42
tp263
tp264
I01
s(g245
g250
g247
tp265
(dp266
((I227
I255
tp267
(I186
I255
tp268
(I95
I141
tp269
tp270
I00
s((I166
I226
tp271
g268
(I43
I94
tp272
tp273
(dp274
((I166
I202
tp275
(I186
I255
tp276
(I43
I63
tp277
tp278
(dp279
((I166
I191
tp280
(I186
I255
tp281
(I43
I63
tp282
tp283
I00
s((I192
I202
tp284
g281
g282
tp285
I01
ss((I203
I226
tp286
g276
(I64
I94
tp287
tp288
I00
s(g286
g276
g277
tp289
I01
s(g275
g276
g287
tp290
I01
ss(g267
g268
g272
tp291
I01
s(g271
g268
g269
tp292
I00
ss(g245
g250
g263
tp293
I01
s(g249
g246
g263
tp294
I01
s(g245
g246
g263
tp295
(dp296
((I166
I226
tp297
(I150
I167
tp298
(I0
I42
tp299
tp300
I01
s((I227
I255
tp301
(I168
I185
tp302
g299
tp303
I00
s(g297
g302
g299
tp304
I01
s(g301
g298
g299
tp305
I01
ssssS'green'
p306
(dp307
((I0
I224
tp308
(I33
I255
tp309
(I0
I252
tp310
tp311
(dp312
((I0
I156
tp313
(I158
I255
tp314
(I0
I139
tp315
tp316
(dp317
((I0
I156
tp318
(I206
I255
tp319
(I0
I118
tp320
tp321
I01
s(g318
(I158
I205
tp322
(I119
I139
tp323
tp324
I00
s(g318
g319
g323
tp325
I01
s(g318
g322
g320
tp326
I01
ss((I157
I224
tp327
g314
(I140
I252
tp328
tp329
(dp330
((I157
I197
tp331
(I206
I255
tp332
(I140
I252
tp333
tp334
(dp335
((I157
I174
tp336
(I206
I255
tp337
(I140
I252
tp338
tp339
I01
s((I175
I197
tp340
g337
g338
tp341
I00
ss((I198
I224
tp342
(I158
I205
tp343
g333
tp344
I00
s(g342
g332
g333
tp345
I00
s(g331
g343
g333
tp346
I00
ss(g327
(I33
I157
tp347
g328
tp348
I00
s(g313
g347
g315
tp349
(dp350
((I0
I156
tp351
(I96
I157
tp352
(I0
I118
tp353
tp354
I01
s(g351
(I33
I95
tp355
g353
tp356
(dp357
((I0
I156
tp358
(I52
I95
tp359
(I0
I118
tp360
tp361
(dp362
((I0
I156
tp363
(I86
I95
tp364
(I0
I118
tp365
tp366
I01
s(g363
(I52
I85
tp367
g365
tp368
(dp369
((I0
I156
tp370
(I52
I62
tp371
(I0
I118
tp372
tp373
I01
s(g370
(I63
I85
tp374
g372
tp375
(dp376
((I0
I156
tp377
(I75
I85
tp378
(I0
I118
tp379
tp380
I00
s(g377
(I63
I74
tp381
g379
tp382
I01
ssss(g358
(I33
I51
tp383
g360
tp384
I01
ss(g351
g355
(I119
I139
tp385
tp386
I00
s(g351
g352
g385
tp387
I00
ss(g313
g347
g328
tp388
I00
s(g327
g314
g315
tp389
(dp390
((I198
I224
tp391
(I158
I205
tp392
(I119
I139
tp393
tp394
(dp395
((I198
I224
tp396
(I158
I193
tp397
(I119
I139
tp398
tp399
I00
s(g396
(I194
I205
tp400
g398
tp401
I01
ss(g391
(I206
I255
tp402
g393
tp403
I01
s(g391
g392
(I0
I118
tp404
tp405
I00
s((I157
I197
tp406
g402
g404
tp407
I01
s(g406
g392
g393
tp408
(dp409
((I157
I174
tp410
(I158
I193
tp411
(I119
I139
tp412
tp413
I00
s((I175
I197
tp414
(I194
I205
tp415
g412
tp416
I00
s(g410
g415
g412
tp417
I01
s(g414
g411
g412
tp418
I00
ss(g406
g402
g393
tp419
I01
s(g406
g392
g404
tp420
I01
s(g391
g402
g404
tp421
I01
ss(g327
g347
g315
tp422
I00
s(g313
g314
g328
tp423
I00
sssS'violet'
p424
(dp425
((I11
I219
tp426
(I0
I177
tp427
(I17
I255
tp428
tp429
(dp430
((I85
I219
tp431
(I0
I82
tp432
(I17
I113
tp433
tp434
(dp435
((I85
I201
tp436
(I0
I45
tp437
(I17
I47
tp438
tp439
(dp440
((I85
I104
tp441
(I0
I45
tp442
(I17
I47
tp443
tp444
I01
s((I105
I201
tp445
g442
g443
tp446
I00
ss((I202
I219
tp447
(I46
I82
tp448
(I48
I113
tp449
tp450
I01
s(g447
g437
g438
tp451
I01
s(g436
g448
g449
tp452
I01
s(g436
g448
g438
tp453
(dp454
((I85
I104
tp455
(I46
I82
tp456
(I17
I47
tp457
tp458
I01
s((I105
I201
tp459
g456
g457
tp460
I00
ss(g447
g437
g449
tp461
I01
s(g447
g448
g438
tp462
I01
s(g436
g437
g449
tp463
I01
ss(g431
g432
(I114
I255
tp464
tp465
I01
s((I11
I84
tp466
(I83
I177
tp467
g433
tp468
I00
s(g466
g432
g464
tp469
I01
s(g466
g432
g433
tp470
(dp471
((I11
I46
tp472
(I46
I82
tp473
(I48
I113
tp474
tp475
I01
s(g472
(I0
I45
tp476
g474
tp477
I01
s((I47
I84
tp478
g473
g474
tp479
I00
s(g472
g476
(I17
I47
tp480
tp481
I01
s(g472
g473
g480
tp482
I01
s(g478
g473
g480
tp483
I00
s(g478
g476
g480
tp484
I01
s(g478
g476
g474
tp485
I01
ss(g431
g467
g433
tp486
(dp487
((I202
I219
tp488
(I83
I154
tp489
(I17
I47
tp490
tp491
I01
s(g488
(I155
I177
tp492
g490
tp493
I01
s((I85
I201
tp494
g492
g490
tp495
(dp496
((I85
I104
tp497
(I155
I177
tp498
(I17
I47
tp499
tp500
I01
s((I105
I201
tp501
g498
g499
tp502
I00
ss(g494
g489
g490
tp503
I00
s(g494
g489
(I48
I113
tp504
tp505
I00
s(g494
g492
g504
tp506
I00
s(g488
g492
g504
tp507
I01
s(g488
g489
g504
tp508
I01
ss(g466
g467
g464
tp509
I00
s(g431
g467
g464
tp510
(dp511
((I85
I201
tp512
(I83
I154
tp513
(I114
I255
tp514
tp515
(dp516
((I85
I104
tp517
(I83
I154
tp518
(I114
I255
tp519
tp520
I01
s((I105
I201
tp521
g518
g519
tp522
I00
ss(g512
(I155
I177
tp523
g514
tp524
I00
s((I202
I219
tp525
g523
g514
tp526
I01
s(g525
g513
g514
tp527
I01
ssssS'orange'
p528
(dp529
((I169
I255
tp530
(I19
I202
tp531
(I0
I94
tp532
tp533
(dp534
((I169
I224
tp535
(I69
I202
tp536
(I51
I94
tp537
tp538
(dp539
((I195
I224
tp540
(I176
I202
tp541
(I80
I94
tp542
tp543
I01
s((I169
I194
tp544
g541
(I51
I79
tp545
tp546
I01
s(g540
(I69
I175
tp547
g545
tp548
(dp549
((I213
I224
tp550
(I124
I175
tp551
(I51
I79
tp552
tp553
I01
s(g550
(I69
I123
tp554
g552
tp555
I00
s((I195
I212
tp556
g551
g552
tp557
I00
s(g556
g554
g552
tp558
I01
ss(g544
g547
g545
tp559
I00
s(g544
g541
g542
tp560
I01
s(g540
g547
g542
tp561
(dp562
((I213
I224
tp563
(I124
I175
tp564
(I80
I94
tp565
tp566
I01
s(g563
(I69
I123
tp567
g565
tp568
I00
s((I195
I212
tp569
g564
g565
tp570
I00
s(g569
g567
g565
tp571
I01
ss(g544
g547
g542
tp572
I01
s(g540
g541
g545
tp573
(dp574
((I195
I212
tp575
(I176
I202
tp576
(I51
I79
tp577
tp578
I00
s((I213
I224
tp579
g576
g577
tp580
I01
sss((I225
I255
tp581
g536
g537
tp582
(dp583
((I236
I255
tp584
(I69
I175
tp585
(I80
I94
tp586
tp587
I01
s(g584
(I176
I202
tp588
g586
tp589
I01
s(g584
g585
(I51
I79
tp590
tp591
(dp592
((I236
I255
tp593
(I124
I175
tp594
(I51
I79
tp595
tp596
I01
s(g593
(I69
I123
tp597
g595
tp598
(dp599
((I236
I255
tp600
(I69
I108
tp601
(I51
I79
tp602
tp603
I00
s(g600
(I109
I123
tp604
g602
tp605
I01
sss(g584
g588
g590
tp606
I01
s((I225
I235
tp607
g588
g586
tp608
I01
s(g607
g585
g586
tp609
(dp610
((I225
I235
tp611
(I69
I123
tp612
(I80
I94
tp613
tp614
I01
s(g611
(I124
I175
tp615
g613
tp616
I00
ss(g607
g588
g590
tp617
I01
s(g607
g585
g590
tp618
I01
ss(g581
(I19
I68
tp619
g537
tp620
(dp621
((I236
I255
tp622
(I19
I68
tp623
(I80
I94
tp624
tp625
I01
s(g622
g623
(I51
I79
tp626
tp627
I00
s((I225
I235
tp628
g623
g626
tp629
I00
s(g628
g623
g624
tp630
I01
ss(g581
g536
(I0
I50
tp631
tp632
(dp633
((I225
I235
tp634
(I176
I202
tp635
(I34
I50
tp636
tp637
I01
s((I236
I255
tp638
g635
g636
tp639
I01
s(g638
(I69
I175
tp640
g636
tp641
I01
s(g634
g640
(I0
I33
tp642
tp643
I01
s(g634
g640
g636
tp644
I01
s(g638
g640
g642
tp645
I01
s(g638
g635
g642
tp646
I00
s(g634
g635
g642
tp647
(dp648
((I225
I235
tp649
(I176
I202
tp650
(I0
I16
tp651
tp652
I00
s(g649
g650
(I17
I33
tp653
tp654
I01
sss(g581
g619
g631
tp655
(dp656
((I236
I255
tp657
(I19
I68
tp658
(I0
I33
tp659
tp660
I00
s(g657
g658
(I34
I50
tp661
tp662
I01
s((I225
I235
tp663
g658
g659
tp664
(dp665
((I225
I235
tp666
(I19
I68
tp667
(I17
I33
tp668
tp669
I00
s(g666
g667
(I0
I16
tp670
tp671
I01
ss(g663
g658
g661
tp672
I00
ss(g535
g619
g631
tp673
(dp674
((I195
I224
tp675
(I19
I68
tp676
(I0
I33
tp677
tp678
(dp679
((I195
I212
tp680
(I19
I68
tp681
(I17
I33
tp682
tp683
I01
s((I213
I224
tp684
g681
g682
tp685
I01
s(g684
g681
(I0
I16
tp686
tp687
I00
s(g680
g681
g686
tp688
I01
ss(g675
g676
(I34
I50
tp689
tp690
I00
s((I169
I194
tp691
g676
g689
tp692
I01
s(g691
g676
g677
tp693
I01
ss(g535
g619
g537
tp694
(dp695
((I169
I194
tp696
(I19
I68
tp697
(I51
I79
tp698
tp699
I00
s(g696
g697
(I80
I94
tp700
tp701
I01
s((I195
I224
tp702
g697
g698
tp703
I00
s(g702
g697
g700
tp704
I00
ss(g535
g536
g631
tp705
(dp706
((I195
I224
tp707
(I69
I175
tp708
(I0
I33
tp709
tp710
I01
s(g707
g708
(I34
I50
tp711
tp712
(dp713
((I195
I212
tp714
(I124
I175
tp715
(I34
I50
tp716
tp717
(dp718
((I195
I212
tp719
(I151
I175
tp720
(I34
I50
tp721
tp722
I00
s(g719
(I124
I150
tp723
g721
tp724
I01
ss((I213
I224
tp725
g715
g716
tp726
(dp727
((I213
I224
tp728
(I124
I150
tp729
(I34
I50
tp730
tp731
I01
s(g728
(I151
I175
tp732
g730
tp733
I00
ss(g714
(I69
I123
tp734
g716
tp735
I01
s(g725
g734
g716
tp736
I01
ss((I169
I194
tp737
(I176
I202
tp738
g711
tp739
I01
s(g707
g738
g711
tp740
I01
s(g737
g738
g709
tp741
(dp742
((I169
I194
tp743
(I176
I202
tp744
(I17
I33
tp745
tp746
I00
s(g743
g744
(I0
I16
tp747
tp748
I01
ss(g737
g708
g709
tp749
(dp750
((I169
I194
tp751
(I124
I175
tp752
(I0
I16
tp753
tp754
(dp755
((I169
I194
tp756
(I151
I175
tp757
(I0
I16
tp758
tp759
I00
s(g756
(I124
I150
tp760
g758
tp761
I01
ss(g751
(I69
I123
tp762
g753
tp763
I01
s(g751
g752
(I17
I33
tp764
tp765
I00
s(g751
g762
g764
tp766
I01
ss(g707
g738
g709
tp767
(dp768
((I213
I224
tp769
(I176
I202
tp770
(I0
I16
tp771
tp772
I00
s((I195
I212
tp773
g770
(I17
I33
tp774
tp775
I01
s(g769
g770
g774
tp776
I01
s(g773
g770
g771
tp777
I00
ss(g737
g708
g711
tp778
I00
ssssS'cyan'
p779
(dp780
((I0
I220
tp781
(I77
I255
tp782
(I60
I255
tp783
tp784
(dp785
((I0
I100
tp786
(I77
I193
tp787
(I86
I255
tp788
tp789
(dp790
((I0
I100
tp791
(I135
I193
tp792
(I86
I155
tp793
tp794
I01
s(g791
(I77
I134
tp795
(I156
I255
tp796
tp797
I00
s(g791
g795
g793
tp798
I01
s(g791
g792
g796
tp799
I01
ss(g786
(I194
I255
tp800
g788
tp801
I01
s((I101
I220
tp802
g800
(I60
I85
tp803
tp804
(dp805
((I126
I220
tp806
(I235
I255
tp807
(I60
I85
tp808
tp809
I00
s((I101
I125
tp810
(I194
I234
tp811
g808
tp812
I01
s(g810
g807
g808
tp813
I00
s(g806
g811
g808
tp814
I00
ss(g786
g800
g803
tp815
I00
s(g802
g787
g788
tp816
I00
s(g802
g800
g788
tp817
(dp818
((I101
I125
tp819
(I194
I234
tp820
(I86
I155
tp821
tp822
I01
s((I126
I220
tp823
(I235
I255
tp824
(I156
I255
tp825
tp826
I01
s(g819
g820
g825
tp827
I01
s(g823
g824
g821
tp828
I00
s(g819
g824
g825
tp829
I01
s(g823
g820
g825
tp830
(dp831
((I201
I220
tp832
(I194
I234
tp833
(I156
I255
tp834
tp835
I00
s((I126
I200
tp836
g833
g834
tp837
(dp838
((I126
I189
tp839
(I194
I234
tp840
(I156
I255
tp841
tp842
I00
s((I190
I200
tp843
g840
g841
tp844
I01
sss(g819
g824
g821
tp845
(dp846
((I116
I125
tp847
(I235
I255
tp848
(I86
I155
tp849
tp850
I01
s((I101
I115
tp851
g848
g849
tp852
I00
ss(g823
g820
g821
tp853
I00
ss(g802
g787
g803
tp854
I00
s(g786
g787
g803
tp855
I00
sssS'white'
p856
(dp857
((I205
I255
tp858
(I216
I255
tp859
(I113
I255
tp860
tp861
I01
ssS'tan'
p862
(dp863
((I159
I255
tp864
(I133
I254
tp865
(I39
I158
tp866
tp867
(dp868
((I204
I255
tp869
(I231
I254
tp870
(I39
I79
tp871
tp872
I00
s(g869
(I133
I230
tp873
(I80
I158
tp874
tp875
I01
s((I159
I203
tp876
g870
g871
tp877
I01
s(g876
g873
g874
tp878
(dp879
((I159
I203
tp880
(I133
I159
tp881
(I148
I158
tp882
tp883
I01
s(g880
g881
(I80
I147
tp884
tp885
I01
s(g880
(I160
I230
tp886
g882
tp887
(dp888
((I159
I203
tp889
(I178
I230
tp890
(I148
I158
tp891
tp892
I00
s(g889
(I160
I177
tp893
g891
tp894
I01
ss(g880
g886
g884
tp895
I00
ss(g869
g870
g874
tp896
(dp897
((I204
I242
tp898
(I231
I254
tp899
(I80
I147
tp900
tp901
I00
s((I243
I255
tp902
g899
g900
tp903
I00
s(g898
g899
(I148
I158
tp904
tp905
I01
s(g902
g899
g904
tp906
I01
ss(g869
g873
g871
tp907
(dp908
((I204
I242
tp909
(I133
I159
tp910
(I39
I79
tp911
tp912
I01
s((I243
I255
tp913
g910
g911
tp914
I01
s(g913
(I160
I230
tp915
g911
tp916
I00
s(g909
g915
g911
tp917
I01
ss(g876
g873
g871
tp918
I00
s(g876
g870
g874
tp919
(dp920
((I159
I203
tp921
(I231
I254
tp922
(I80
I147
tp923
tp924
I00
s(g921
g922
(I148
I158
tp925
tp926
I01
ssssS'red'
p927
(dp928
((I83
I255
tp929
(I0
I128
tp930
(I0
I144
tp931
tp932
(dp933
((I119
I255
tp934
(I0
I51
tp935
(I73
I144
tp936
tp937
(dp938
((I191
I255
tp939
(I0
I51
tp940
(I73
I110
tp941
tp942
I01
s((I119
I190
tp943
g940
g941
tp944
(dp945
((I180
I190
tp946
(I0
I51
tp947
(I92
I110
tp948
tp949
I01
s(g946
g947
(I73
I91
tp950
tp951
I01
s((I119
I179
tp952
g947
g948
tp953
I00
s(g952
g947
g950
tp954
I00
ss(g943
g940
(I111
I144
tp955
tp956
(dp957
((I180
I190
tp958
(I0
I51
tp959
(I111
I144
tp960
tp961
I01
s((I119
I179
tp962
g959
g960
tp963
I00
ss(g939
g940
g955
tp964
I01
ss(g934
(I52
I128
tp965
g936
tp966
(dp967
((I191
I255
tp968
(I52
I109
tp969
(I111
I144
tp970
tp971
I01
s((I119
I190
tp972
g969
(I73
I110
tp973
tp974
(dp975
((I119
I179
tp976
(I52
I109
tp977
(I73
I91
tp978
tp979
I00
s(g976
g977
(I92
I110
tp980
tp981
I00
s((I180
I190
tp982
g977
g978
tp983
I01
s(g982
g977
g980
tp984
I01
ss(g968
(I110
I128
tp985
g970
tp986
I01
s(g968
g969
g973
tp987
I01
s(g972
g985
g970
tp988
I00
s(g968
g985
g973
tp989
(dp990
((I191
I255
tp991
(I110
I128
tp992
(I73
I91
tp993
tp994
I00
s(g991
g992
(I92
I110
tp995
tp996
I01
ss(g972
g985
g973
tp997
(dp998
((I180
I190
tp999
(I110
I128
tp1000
(I73
I91
tp1001
tp1002
I00
s((I119
I179
tp1003
g1000
(I92
I110
tp1004
tp1005
I00
s(g1003
g1000
g1001
tp1006
I00
s(g999
g1000
g1004
tp1007
I01
ss(g972
g969
g970
tp1008
I00
ss(g934
g935
(I0
I72
tp1009
tp1010
(dp1011
((I119
I190
tp1012
(I0
I51
tp1013
(I0
I62
tp1014
tp1015
(dp1016
((I119
I179
tp1017
(I0
I51
tp1018
(I0
I11
tp1019
tp1020
I01
s((I180
I190
tp1021
g1018
(I12
I62
tp1022
tp1023
I01
s(g1021
g1018
g1019
tp1024
I01
s(g1017
g1018
g1022
tp1025
(dp1026
((I119
I168
tp1027
(I0
I51
tp1028
(I12
I22
tp1029
tp1030
(dp1031
((I119
I152
tp1032
(I0
I51
tp1033
(I12
I22
tp1034
tp1035
I00
s((I153
I168
tp1036
g1033
g1034
tp1037
I01
ss(g1027
g1028
(I23
I62
tp1038
tp1039
I01
s((I169
I179
tp1040
g1028
g1038
tp1041
I01
s(g1040
g1028
g1029
tp1042
I01
sss((I191
I255
tp1043
g1013
(I63
I72
tp1044
tp1045
I01
s(g1012
g1013
g1044
tp1046
I01
s(g1043
g1013
g1014
tp1047
I01
ss(g934
g965
g1009
tp1048
(dp1049
((I119
I190
tp1050
(I52
I109
tp1051
(I63
I72
tp1052
tp1053
I01
s((I191
I255
tp1054
(I110
I128
tp1055
(I0
I62
tp1056
tp1057
(dp1058
((I191
I255
tp1059
(I110
I128
tp1060
(I12
I62
tp1061
tp1062
I00
s(g1059
g1060
(I0
I11
tp1063
tp1064
I01
ss(g1054
g1051
g1056
tp1065
(dp1066
((I191
I255
tp1067
(I52
I109
tp1068
(I0
I11
tp1069
tp1070
I01
s(g1067
g1068
(I12
I62
tp1071
tp1072
(dp1073
((I191
I255
tp1074
(I52
I109
tp1075
(I23
I62
tp1076
tp1077
I00
s(g1074
g1075
(I12
I22
tp1078
tp1079
I01
sss(g1054
g1051
g1052
tp1080
I01
s(g1054
g1055
g1052
tp1081
I01
s(g1050
g1051
g1056
tp1082
(dp1083
((I119
I179
tp1084
(I52
I109
tp1085
(I0
I11
tp1086
tp1087
I00
s(g1084
g1085
(I12
I62
tp1088
tp1089
I00
s((I180
I190
tp1090
g1085
g1086
tp1091
I01
s(g1090
g1085
g1088
tp1092
I01
ss(g1050
g1055
g1052
tp1093
(dp1094
((I119
I179
tp1095
(I110
I128
tp1096
(I63
I72
tp1097
tp1098
I00
s((I180
I190
tp1099
g1096
g1097
tp1100
I01
ss(g1050
g1055
g1056
tp1101
(dp1102
((I119
I179
tp1103
(I110
I128
tp1104
(I12
I62
tp1105
tp1106
I00
s(g1103
g1104
(I0
I11
tp1107
tp1108
I01
s((I180
I190
tp1109
g1104
g1105
tp1110
I00
s(g1109
g1104
g1107
tp1111
I01
sss((I83
I118
tp1112
g965
g1009
tp1113
(dp1114
((I83
I118
tp1115
(I110
I128
tp1116
(I63
I72
tp1117
tp1118
I01
s(g1115
(I52
I109
tp1119
(I0
I62
tp1120
tp1121
I00
s(g1115
g1116
g1120
tp1122
I00
s(g1115
g1119
g1117
tp1123
I00
ss(g1112
g965
g936
tp1124
I00
s(g1112
g935
g936
tp1125
I00
s(g1112
g935
g1009
tp1126
(dp1127
((I83
I118
tp1128
(I0
I51
tp1129
(I0
I62
tp1130
tp1131
(dp1132
((I83
I118
tp1133
(I0
I51
tp1134
(I12
I62
tp1135
tp1136
I00
s(g1133
g1134
(I0
I11
tp1137
tp1138
I01
ss(g1128
g1129
(I63
I72
tp1139
tp1140
I01
ssssS'black'
p1141
(dp1142
((I0
I60
tp1143
(I0
I58
tp1144
(I0
I58
tp1145
tp1146
(dp1147
((I0
I44
tp1148
(I43
I58
tp1149
(I23
I58
tp1150
tp1151
(dp1152
((I0
I44
tp1153
(I43
I58
tp1154
(I48
I58
tp1155
tp1156
I01
s(g1153
g1154
(I23
I47
tp1157
tp1158
I00
ss(g1148
g1149
(I0
I22
tp1159
tp1160
I00
s(g1148
(I0
I42
tp1161
g1159
tp1162
I01
s((I45
I60
tp1163
g1161
g1150
tp1164
(dp1165
((I45
I60
tp1166
(I0
I42
tp1167
(I48
I58
tp1168
tp1169
I01
s(g1166
g1167
(I23
I47
tp1170
tp1171
I00
ss(g1163
g1149
g1159
tp1172
(dp1173
((I45
I60
tp1174
(I43
I58
tp1175
(I0
I12
tp1176
tp1177
I00
s(g1174
g1175
(I13
I22
tp1178
tp1179
I01
ss(g1163
g1149
g1150
tp1180
I00
s(g1163
g1161
g1159
tp1181
(dp1182
((I45
I60
tp1183
(I0
I42
tp1184
(I13
I22
tp1185
tp1186
I01
s(g1183
g1184
(I0
I12
tp1187
tp1188
I00
ss(g1148
g1161
g1150
tp1189
I01
sss.