(dp0
S'blue'
p1
(dp2
((I0
I183
tp3
(I0
I219
tp4
(I53
I255
tp5
tp6
(dp7
((I0
I126
tp8
(I161
I219
tp9
(I185
I255
tp10
tp11
(dp12
((I0
I10
tp13
(I205
I219
tp14
(I185
I255
tp15
tp16
I01
s(g13
(I161
I204
tp17
g15
tp18
(dp19
((I0
I10
tp20
(I180
I204
tp21
(I185
I255
tp22
tp23
(dp24
((I0
I10
tp25
(I191
I204
tp26
(I185
I255
tp27
tp28
I01
s(g25
(I180
I190
tp29
g27
tp30
I00
ss(g20
(I161
I179
tp31
g22
tp32
I01
ss((I11
I126
tp33
g17
g15
tp34
I01
s(g33
g14
g15
tp35
I01
ss(g8
(I0
I160
tp36
(I53
I184
tp37
tp38
I01
s(g8
g36
g10
tp39
I01
s((I127
I183
tp40
g36
g37
tp41
(dp42
((I127
I161
tp43
(I11
I160
tp44
(I79
I184
tp45
tp46
I00
s((I162
I183
tp47
g44
(I53
I78
tp48
tp49
I00
s(g47
(I0
I10
tp50
g48
tp51
I01
s(g47
g44
g45
tp52
I00
s(g47
g50
g45
tp53
I01
s(g43
g50
g48
tp54
(dp55
((I142
I161
tp56
(I0
I10
tp57
(I53
I78
tp58
tp59
I01
s((I127
I141
tp60
g57
g58
tp61
I00
ss(g43
g44
g48
tp62
I00
s(g43
g50
g45
tp63
(dp64
((I127
I141
tp65
(I0
I10
tp66
(I79
I184
tp67
tp68
I00
s((I142
I161
tp69
g66
g67
tp70
I01
sss(g8
g9
g37
tp71
(dp72
((I0
I10
tp73
(I161
I204
tp74
(I53
I78
tp75
tp76
I01
s((I11
I126
tp77
(I205
I219
tp78
g75
tp79
I01
s(g77
g78
(I79
I184
tp80
tp81
I00
s(g73
g78
g75
tp82
I01
s(g73
g78
g80
tp83
I01
s(g77
g74
g80
tp84
I00
s(g73
g74
g80
tp85
I00
s(g77
g74
g75
tp86
(dp87
((I11
I126
tp88
(I161
I179
tp89
(I53
I78
tp90
tp91
I00
s(g88
(I180
I204
tp92
g90
tp93
I01
sss(g40
g9
g37
tp94
(dp95
((I127
I161
tp96
(I161
I204
tp97
(I53
I78
tp98
tp99
I00
s((I162
I183
tp100
(I205
I219
tp101
(I79
I184
tp102
tp103
I00
s(g100
g97
g102
tp104
I00
s(g100
g101
g98
tp105
I01
s(g96
g101
g102
tp106
I00
s(g100
g97
g98
tp107
I00
s(g96
g101
g98
tp108
I00
s(g96
g97
g102
tp109
I00
ss(g40
g9
g10
tp110
(dp111
((I162
I183
tp112
(I161
I204
tp113
(I185
I255
tp114
tp115
I00
s(g112
(I205
I219
tp116
g114
tp117
I01
s((I127
I161
tp118
g116
g114
tp119
I01
s(g118
g113
g114
tp120
I01
ss(g40
g36
g10
tp121
(dp122
((I127
I161
tp123
(I0
I10
tp124
(I185
I255
tp125
tp126
(dp127
((I142
I161
tp128
(I0
I10
tp129
(I185
I255
tp130
tp131
I01
s((I127
I141
tp132
g129
g130
tp133
I00
ss((I162
I183
tp134
g124
g125
tp135
I01
s(g134
(I11
I160
tp136
g125
tp137
I01
s(g123
g136
g125
tp138
I01
ssssS'pink'
p139
(dp140
((I171
I255
tp141
(I0
I206
tp142
(I72
I255
tp143
tp144
(dp145
((I196
I255
tp146
(I118
I206
tp147
(I100
I255
tp148
tp149
(dp150
((I225
I255
tp151
(I118
I206
tp152
(I100
I255
tp153
tp154
I01
s((I196
I224
tp155
g152
g153
tp156
I00
ss((I171
I195
tp157
(I0
I117
tp158
g148
tp159
(dp160
((I171
I195
tp161
(I0
I20
tp162
(I100
I255
tp163
tp164
I01
s(g161
(I21
I117
tp165
g163
tp166
I00
ss(g146
g147
(I72
I99
tp167
tp168
I00
s(g157
g158
g167
tp169
(dp170
((I171
I195
tp171
(I0
I20
tp172
(I72
I99
tp173
tp174
I01
s(g171
(I21
I117
tp175
g173
tp176
I00
ss(g157
g147
g148
tp177
I01
s(g146
g158
g167
tp178
(dp179
((I225
I255
tp180
(I0
I20
tp181
(I72
I99
tp182
tp183
I01
s((I196
I224
tp184
(I21
I117
tp185
g182
tp186
(dp187
((I212
I224
tp188
(I21
I34
tp189
(I72
I99
tp190
tp191
I00
s((I196
I211
tp192
g189
g190
tp193
I00
s(g192
(I35
I117
tp194
g190
tp195
(dp196
((I196
I211
tp197
(I35
I107
tp198
(I72
I99
tp199
tp200
(dp201
((I196
I211
tp202
(I35
I73
tp203
(I72
I99
tp204
tp205
(dp206
((I196
I211
tp207
(I35
I61
tp208
(I72
I99
tp209
tp210
(dp211
((I196
I211
tp212
(I47
I61
tp213
(I72
I99
tp214
tp215
I00
s(g212
(I35
I46
tp216
g214
tp217
I01
ss(g207
(I62
I73
tp218
g209
tp219
I00
ss(g202
(I74
I107
tp220
g204
tp221
I01
ss(g197
(I108
I117
tp222
g199
tp223
I00
ss(g188
g194
g190
tp224
I00
ss(g180
g185
g182
tp225
I00
s(g184
g181
g182
tp226
(dp227
((I196
I211
tp228
(I0
I20
tp229
(I72
I99
tp230
tp231
I00
s((I212
I224
tp232
g229
g230
tp233
I01
sss(g157
g147
g167
tp234
I01
s(g146
g158
g148
tp235
I01
sssS'brown'
p236
(dp237
((I33
I225
tp238
(I0
I173
tp239
(I0
I128
tp240
tp241
(dp242
((I33
I96
tp243
(I35
I173
tp244
(I0
I83
tp245
tp246
(dp247
((I33
I96
tp248
(I147
I173
tp249
(I0
I83
tp250
tp251
I01
s(g248
(I35
I146
tp252
g250
tp253
I00
ss(g243
g244
(I84
I128
tp254
tp255
I00
s(g243
(I0
I34
tp256
g245
tp257
I01
s((I97
I225
tp258
g256
g254
tp259
I00
s(g243
g256
g254
tp260
I01
s(g258
g244
g254
tp261
(dp262
((I97
I205
tp263
(I35
I146
tp264
(I84
I128
tp265
tp266
I00
s((I206
I225
tp267
g264
g265
tp268
I01
s(g263
(I147
I173
tp269
g265
tp270
I01
s(g267
g269
g265
tp271
I01
ss(g258
g244
g245
tp272
I01
s(g258
g256
g245
tp273
(dp274
((I206
I225
tp275
(I0
I34
tp276
(I0
I83
tp277
tp278
I01
s((I97
I205
tp279
g276
g277
tp280
I00
ssssS'gray'
p281
(dp282
((I11
I236
tp283
(I28
I222
tp284
(I17
I255
tp285
tp286
(dp287
((I11
I43
tp288
(I28
I49
tp289
(I44
I255
tp290
tp291
I01
s((I44
I236
tp292
g289
(I17
I43
tp293
tp294
(dp295
((I44
I206
tp296
(I28
I49
tp297
(I17
I43
tp298
tp299
I00
s((I207
I236
tp300
g297
g298
tp301
(dp302
((I207
I226
tp303
(I28
I49
tp304
(I17
I43
tp305
tp306
I01
s((I227
I236
tp307
g304
g305
tp308
I00
sss(g292
g289
g290
tp309
I00
s(g288
(I50
I222
tp310
g290
tp311
I00
s(g292
g310
g293
tp312
I00
s(g292
g310
g290
tp313
(dp314
((I44
I206
tp315
(I50
I185
tp316
(I44
I255
tp317
tp318
I01
s(g315
(I186
I222
tp319
g317
tp320
I00
s((I207
I236
tp321
g319
g317
tp322
I00
s(g321
g316
g317
tp323
(dp324
((I207
I226
tp325
(I147
I185
tp326
(I44
I255
tp327
tp328
I00
s((I227
I236
tp329
(I50
I146
tp330
g327
tp331
I01
s(g325
g330
g327
tp332
I00
s(g329
g326
g327
tp333
I01
sss(g288
g310
g293
tp334
I00
s(g288
g289
g293
tp335
I01
sssS'yellow'
p336
(dp337
((I152
I255
tp338
(I150
I255
tp339
(I0
I141
tp340
tp341
(dp342
((I246
I255
tp343
(I150
I219
tp344
(I0
I80
tp345
tp346
I01
s((I152
I245
tp347
(I220
I255
tp348
(I81
I141
tp349
tp350
(dp351
((I152
I165
tp352
(I220
I237
tp353
(I81
I141
tp354
tp355
I01
s((I166
I245
tp356
g353
g354
tp357
(dp358
((I166
I226
tp359
(I220
I237
tp360
(I81
I141
tp361
tp362
I00
s((I227
I245
tp363
g360
g361
tp364
I01
ss(g352
(I238
I255
tp365
g354
tp366
I01
s(g356
g365
g354
tp367
I01
ss(g343
g344
g349
tp368
I01
s(g347
g344
g345
tp369
I01
s(g347
g348
g345
tp370
I01
s(g343
g348
g349
tp371
I01
s(g347
g344
g349
tp372
I00
s(g343
g348
g345
tp373
I01
sssS'green'
p374
(dp375
((I0
I224
tp376
(I33
I255
tp377
(I0
I252
tp378
tp379
(dp380
((I0
I156
tp381
(I214
I255
tp382
(I140
I252
tp383
tp384
I00
s(g381
(I33
I213
tp385
(I0
I139
tp386
tp387
(dp388
((I0
I156
tp389
(I33
I95
tp390
(I0
I24
tp391
tp392
I01
s(g389
g390
(I25
I139
tp393
tp394
I00
s(g389
(I96
I213
tp395
g393
tp396
I01
s(g389
g395
g391
tp397
I01
ss((I157
I224
tp398
g382
g386
tp399
(dp400
((I157
I205
tp401
(I214
I255
tp402
(I0
I24
tp403
tp404
(dp405
((I157
I188
tp406
(I214
I255
tp407
(I0
I14
tp408
tp409
(dp410
((I157
I174
tp411
(I214
I255
tp412
(I0
I14
tp413
tp414
I01
s((I175
I188
tp415
g412
g413
tp416
I00
ss((I189
I205
tp417
g407
(I15
I24
tp418
tp419
I01
s(g406
g407
g418
tp420
I01
s(g417
g407
g408
tp421
I01
ss((I206
I224
tp422
g402
(I25
I139
tp423
tp424
I01
s(g422
g402
g403
tp425
(dp426
((I206
I224
tp427
(I214
I255
tp428
(I15
I24
tp429
tp430
I01
s(g427
g428
(I0
I14
tp431
tp432
I00
ss(g401
g402
g423
tp433
I01
ss(g398
g382
g383
tp434
(dp435
((I157
I205
tp436
(I214
I255
tp437
(I140
I164
tp438
tp439
I01
s(g436
g437
(I165
I252
tp440
tp441
I00
s((I206
I224
tp442
g437
g440
tp443
I00
s(g442
g437
g438
tp444
I01
ss(g398
g385
g383
tp445
(dp446
((I157
I205
tp447
(I96
I213
tp448
(I165
I252
tp449
tp450
I00
s((I206
I224
tp451
(I33
I95
tp452
g449
tp453
I00
s(g447
g452
(I140
I164
tp454
tp455
I00
s(g451
g448
g449
tp456
I00
s(g451
g448
g454
tp457
I00
s(g447
g448
g454
tp458
I00
s(g447
g452
g449
tp459
I00
s(g451
g452
g454
tp460
I01
ss(g398
g385
g386
tp461
(dp462
((I157
I205
tp463
(I96
I213
tp464
(I0
I24
tp465
tp466
I01
s(g463
(I33
I95
tp467
g465
tp468
(dp469
((I189
I205
tp470
(I86
I95
tp471
(I0
I14
tp472
tp473
I01
s((I157
I188
tp474
(I33
I85
tp475
(I15
I24
tp476
tp477
I00
s(g470
g475
g476
tp478
I01
s(g474
g471
g472
tp479
I01
s(g474
g475
g472
tp480
I00
s(g470
g471
g476
tp481
I00
s(g474
g471
g476
tp482
I01
s(g470
g475
g472
tp483
I00
ss((I206
I224
tp484
g467
g465
tp485
(dp486
((I206
I224
tp487
(I33
I85
tp488
(I15
I24
tp489
tp490
I01
s(g487
(I86
I95
tp491
g489
tp492
I01
s(g487
g488
(I0
I14
tp493
tp494
I00
s(g487
g491
g493
tp495
I00
ss(g484
g464
g465
tp496
(dp497
((I206
I224
tp498
(I96
I213
tp499
(I15
I24
tp500
tp501
I01
s(g498
g499
(I0
I14
tp502
tp503
I00
ss(g463
g464
(I25
I139
tp504
tp505
I00
s(g484
g467
g504
tp506
I00
s(g463
g467
g504
tp507
I00
s(g484
g464
g504
tp508
I00
ss(g381
g382
g386
tp509
I01
s(g381
g385
g383
tp510
I00
sssS'violet'
p511
(dp512
((I11
I219
tp513
(I0
I177
tp514
(I17
I255
tp515
tp516
(dp517
((I11
I64
tp518
(I0
I82
tp519
(I112
I255
tp520
tp521
(dp522
((I47
I64
tp523
(I0
I45
tp524
(I112
I255
tp525
tp526
I00
s(g523
(I46
I82
tp527
g525
tp528
I01
s((I11
I46
tp529
g527
g525
tp530
I00
s(g529
g524
g525
tp531
I00
ss((I65
I219
tp532
(I83
I177
tp533
g520
tp534
(dp535
((I65
I201
tp536
(I83
I154
tp537
(I112
I255
tp538
tp539
I00
s((I202
I219
tp540
(I155
I177
tp541
g538
tp542
I01
s(g536
g541
g538
tp543
I00
s(g540
g537
g538
tp544
I01
ss(g532
g533
(I17
I111
tp545
tp546
(dp547
((I202
I219
tp548
(I83
I154
tp549
(I17
I47
tp550
tp551
I00
s(g548
(I155
I177
tp552
g550
tp553
I01
s(g548
g552
(I48
I111
tp554
tp555
I00
s((I65
I201
tp556
g552
g554
tp557
I00
s(g556
g549
g550
tp558
I00
s(g556
g552
g550
tp559
I00
s(g556
g549
g554
tp560
I00
s(g548
g549
g554
tp561
I01
ss(g518
g533
g520
tp562
I00
s(g518
g519
g545
tp563
I01
s(g532
g519
g520
tp564
I01
s(g532
g519
g545
tp565
(dp566
((I65
I201
tp567
(I0
I45
tp568
(I48
I111
tp569
tp570
I01
s((I202
I219
tp571
g568
(I17
I47
tp572
tp573
I01
s(g567
(I46
I82
tp574
g569
tp575
(dp576
((I65
I104
tp577
(I46
I82
tp578
(I48
I111
tp579
tp580
I00
s((I105
I201
tp581
g578
g579
tp582
I01
ss(g567
g574
g572
tp583
I00
s(g567
g568
g572
tp584
(dp585
((I65
I104
tp586
(I0
I45
tp587
(I17
I47
tp588
tp589
I01
s((I105
I201
tp590
g587
g588
tp591
I00
ss(g571
g574
g572
tp592
I01
s(g571
g568
g569
tp593
I01
s(g571
g574
g569
tp594
I01
ss(g518
g533
g545
tp595
I00
sssS'orange'
p596
(dp597
((I169
I255
tp598
(I19
I202
tp599
(I0
I94
tp600
tp601
(dp602
((I169
I224
tp603
(I69
I202
tp604
(I51
I94
tp605
tp606
(dp607
((I169
I194
tp608
(I176
I202
tp609
(I75
I94
tp610
tp611
I01
s((I195
I224
tp612
g609
g610
tp613
I01
s(g608
g609
(I51
I74
tp614
tp615
I01
s(g608
(I69
I175
tp616
g614
tp617
I00
s(g608
g616
g610
tp618
(dp619
((I169
I194
tp620
(I69
I115
tp621
(I75
I94
tp622
tp623
I01
s(g620
(I116
I175
tp624
g622
tp625
I00
ss(g612
g609
g614
tp626
(dp627
((I209
I224
tp628
(I176
I202
tp629
(I51
I74
tp630
tp631
I01
s((I195
I208
tp632
g629
g630
tp633
I00
ss(g612
g616
g614
tp634
(dp635
((I209
I224
tp636
(I69
I115
tp637
(I51
I74
tp638
tp639
I00
s(g636
(I116
I175
tp640
g638
tp641
I01
s((I195
I208
tp642
g637
g638
tp643
I01
s(g642
g640
g638
tp644
I00
ss(g612
g616
g610
tp645
(dp646
((I195
I208
tp647
(I69
I115
tp648
(I75
I94
tp649
tp650
I01
s(g647
(I116
I175
tp651
g649
tp652
(dp653
((I195
I208
tp654
(I116
I150
tp655
(I75
I94
tp656
tp657
I00
s(g654
(I151
I175
tp658
g656
tp659
I01
ss((I209
I224
tp660
g648
g649
tp661
I01
s(g660
g651
g649
tp662
I01
sss((I225
I255
tp663
g604
g605
tp664
I01
s(g663
(I19
I68
tp665
g605
tp666
(dp667
((I245
I255
tp668
(I19
I68
tp669
(I75
I94
tp670
tp671
I01
s((I225
I244
tp672
g669
(I51
I74
tp673
tp674
I00
s(g668
g669
g673
tp675
I00
s(g672
g669
g670
tp676
I00
ss(g663
g604
(I0
I50
tp677
tp678
(dp679
((I225
I244
tp680
(I176
I202
tp681
(I0
I24
tp682
tp683
I00
s(g680
(I69
I175
tp684
g682
tp685
I01
s((I245
I255
tp686
g684
(I25
I50
tp687
tp688
I01
s(g680
g681
g687
tp689
(dp690
((I225
I244
tp691
(I176
I202
tp692
(I25
I39
tp693
tp694
I01
s(g691
g692
(I40
I50
tp695
tp696
I00
ss(g686
g684
g682
tp697
I01
s(g680
g684
g687
tp698
I01
s(g686
g681
g687
tp699
(dp700
((I245
I255
tp701
(I176
I202
tp702
(I40
I50
tp703
tp704
I01
s(g701
g702
(I25
I39
tp705
tp706
I00
ss(g686
g681
g682
tp707
(dp708
((I245
I255
tp709
(I176
I202
tp710
(I0
I14
tp711
tp712
I00
s(g709
g710
(I15
I24
tp713
tp714
I01
sss(g663
g665
g677
tp715
(dp716
((I245
I255
tp717
(I19
I68
tp718
(I0
I24
tp719
tp720
(dp721
((I245
I255
tp722
(I19
I68
tp723
(I15
I24
tp724
tp725
I01
s(g722
g723
(I0
I14
tp726
tp727
I00
ss((I225
I244
tp728
g718
g719
tp729
(dp730
((I225
I244
tp731
(I19
I68
tp732
(I15
I24
tp733
tp734
I01
s(g731
g732
(I0
I14
tp735
tp736
I00
ss(g728
g718
(I25
I50
tp737
tp738
I00
s(g717
g718
g737
tp739
(dp740
((I245
I255
tp741
(I19
I68
tp742
(I40
I50
tp743
tp744
I01
s(g741
g742
(I25
I39
tp745
tp746
I00
sss(g603
g665
g677
tp747
(dp748
((I169
I194
tp749
(I19
I68
tp750
(I0
I24
tp751
tp752
I01
s((I195
I224
tp753
g750
(I25
I50
tp754
tp755
(dp756
((I209
I224
tp757
(I19
I68
tp758
(I25
I39
tp759
tp760
I00
s((I195
I208
tp761
g758
(I40
I50
tp762
tp763
I01
s(g757
g758
g762
tp764
I01
s(g761
g758
g759
tp765
I00
ss(g753
g750
g751
tp766
I01
s(g749
g750
g754
tp767
I00
ss(g603
g665
g605
tp768
(dp769
((I169
I194
tp770
(I19
I68
tp771
(I51
I74
tp772
tp773
I00
s((I195
I224
tp774
g771
(I75
I94
tp775
tp776
I00
s(g770
g771
g775
tp777
I01
s(g774
g771
g772
tp778
I00
ss(g603
g604
g677
tp779
(dp780
((I169
I194
tp781
(I69
I175
tp782
(I0
I24
tp783
tp784
(dp785
((I169
I194
tp786
(I69
I115
tp787
(I15
I24
tp788
tp789
I01
s(g786
(I116
I175
tp790
(I0
I14
tp791
tp792
I00
s(g786
g787
g791
tp793
I01
s(g786
g790
g788
tp794
I00
ss((I195
I224
tp795
(I176
I202
tp796
g783
tp797
(dp798
((I195
I208
tp799
(I176
I202
tp800
(I15
I24
tp801
tp802
I00
s((I209
I224
tp803
g800
g801
tp804
I01
s(g799
g800
(I0
I14
tp805
tp806
I01
s(g803
g800
g805
tp807
I00
ss(g795
g796
(I25
I50
tp808
tp809
I01
s(g781
g796
g808
tp810
(dp811
((I169
I194
tp812
(I176
I202
tp813
(I40
I50
tp814
tp815
I01
s(g812
g813
(I25
I39
tp816
tp817
I00
ss(g795
g782
g783
tp818
I01
s(g781
g782
g808
tp819
(dp820
((I169
I194
tp821
(I69
I115
tp822
(I25
I39
tp823
tp824
I00
s(g821
(I116
I175
tp825
g823
tp826
I00
s(g821
g825
(I40
I50
tp827
tp828
I01
s(g821
g822
g827
tp829
I01
ss(g795
g782
g808
tp830
(dp831
((I209
I224
tp832
(I69
I115
tp833
(I25
I39
tp834
tp835
I01
s((I195
I208
tp836
g833
g834
tp837
I01
s(g832
(I116
I175
tp838
(I40
I50
tp839
tp840
(dp841
((I209
I224
tp842
(I116
I150
tp843
(I40
I50
tp844
tp845
I01
s(g842
(I151
I175
tp846
g844
tp847
I00
ss(g836
g838
g839
tp848
I01
s(g836
g838
g834
tp849
I01
s(g832
g833
g839
tp850
I01
s(g832
g838
g834
tp851
I01
s(g836
g833
g839
tp852
I01
ss(g781
g796
g783
tp853
(dp854
((I169
I194
tp855
(I176
I202
tp856
(I15
I24
tp857
tp858
I00
s(g855
g856
(I0
I14
tp859
tp860
I01
sssssS'cyan'
p861
(dp862
((I0
I220
tp863
(I77
I255
tp864
(I60
I255
tp865
tp866
(dp867
((I0
I100
tp868
(I194
I255
tp869
(I60
I155
tp870
tp871
(dp872
((I0
I100
tp873
(I194
I255
tp874
(I83
I155
tp875
tp876
I00
s(g873
g874
(I60
I82
tp877
tp878
I01
ss(g868
(I77
I193
tp879
(I156
I255
tp880
tp881
I01
s((I101
I220
tp882
g869
g880
tp883
I01
s(g868
g869
g880
tp884
I01
s(g868
g879
g870
tp885
I01
s(g882
g879
g870
tp886
I00
s(g882
g879
g880
tp887
I00
s(g882
g869
g870
tp888
(dp889
((I126
I220
tp890
(I194
I255
tp891
(I60
I82
tp892
tp893
I00
s((I101
I125
tp894
g891
g892
tp895
I01
s(g890
g891
(I83
I155
tp896
tp897
I00
s(g894
g891
g896
tp898
I01
ssssS'white'
p899
(dp900
((I205
I255
tp901
(I216
I255
tp902
(I113
I255
tp903
tp904
(dp905
((I205
I238
tp906
(I216
I245
tp907
(I230
I255
tp908
tp909
I01
s(g906
g907
(I113
I229
tp910
tp911
I00
s((I239
I255
tp912
(I246
I255
tp913
g910
tp914
I01
s(g912
g913
g908
tp915
I01
s(g906
g913
g910
tp916
I01
s(g906
g913
g908
tp917
I01
s(g912
g907
g910
tp918
I01
s(g912
g907
g908
tp919
I01
sssS'tan'
p920
(dp921
((I200
I247
tp922
(I155
I222
tp923
(I89
I177
tp924
tp925
(dp926
((I211
I247
tp927
(I155
I171
tp928
(I89
I129
tp929
tp930
(dp931
((I211
I247
tp932
(I155
I171
tp933
(I103
I129
tp934
tp935
I00
s(g932
g933
(I89
I102
tp936
tp937
I01
ss((I200
I210
tp938
(I172
I222
tp939
(I130
I177
tp940
tp941
(dp942
((I200
I210
tp943
(I172
I222
tp944
(I130
I152
tp945
tp946
I01
s(g943
g944
(I153
I177
tp947
tp948
(dp949
((I200
I210
tp950
(I172
I222
tp951
(I165
I177
tp952
tp953
I00
s(g950
g951
(I153
I164
tp954
tp955
I01
sss(g938
g928
g940
tp956
I00
s(g927
g939
g929
tp957
I01
s(g927
g928
g940
tp958
(dp959
((I211
I247
tp960
(I155
I171
tp961
(I153
I177
tp962
tp963
I00
s(g960
g961
(I130
I152
tp964
tp965
I01
ss(g938
g928
g929
tp966
(dp967
((I200
I210
tp968
(I155
I171
tp969
(I103
I129
tp970
tp971
I00
s(g968
g969
(I89
I102
tp972
tp973
I01
ss(g927
g939
g940
tp974
I01
s(g938
g939
g929
tp975
I01
sssS'red'
p976
(dp977
((I83
I255
tp978
(I0
I128
tp979
(I0
I144
tp980
tp981
(dp982
((I119
I255
tp983
(I0
I51
tp984
(I111
I144
tp985
tp986
(dp987
((I191
I255
tp988
(I0
I51
tp989
(I111
I144
tp990
tp991
I01
s((I119
I190
tp992
g989
g990
tp993
(dp994
((I180
I190
tp995
(I0
I51
tp996
(I111
I144
tp997
tp998
I01
s((I119
I179
tp999
g996
g997
tp1000
I00
sss((I83
I118
tp1001
(I52
I128
tp1002
g985
tp1003
I00
s(g983
g1002
g985
tp1004
(dp1005
((I119
I190
tp1006
(I52
I116
tp1007
(I111
I144
tp1008
tp1009
I00
s((I191
I255
tp1010
g1007
g1008
tp1011
I00
s(g1010
(I117
I128
tp1012
g1008
tp1013
I01
s(g1006
g1012
g1008
tp1014
I01
ss(g983
g1002
(I0
I110
tp1015
tp1016
(dp1017
((I191
I255
tp1018
(I52
I116
tp1019
(I0
I110
tp1020
tp1021
I01
s(g1018
(I117
I128
tp1022
g1020
tp1023
I01
s((I119
I190
tp1024
g1022
g1020
tp1025
I00
s(g1024
g1019
g1020
tp1026
(dp1027
((I180
I190
tp1028
(I52
I116
tp1029
(I0
I110
tp1030
tp1031
I01
s((I119
I179
tp1032
g1029
g1030
tp1033
(dp1034
((I169
I179
tp1035
(I52
I116
tp1036
(I0
I110
tp1037
tp1038
I01
s((I119
I168
tp1039
g1036
g1037
tp1040
I00
ssss(g983
g984
g1015
tp1041
I01
s(g1001
g984
g985
tp1042
I01
s(g1001
g984
g1015
tp1043
I01
s(g1001
g1002
g1015
tp1044
I00
sssS'black'
p1045
(dp1046
((I0
I60
tp1047
(I0
I58
tp1048
(I0
I58
tp1049
tp1050
(dp1051
((I48
I60
tp1052
(I43
I58
tp1053
(I23
I58
tp1054
tp1055
I00
s(g1052
g1053
(I0
I22
tp1056
tp1057
(dp1058
((I48
I60
tp1059
(I43
I58
tp1060
(I0
I12
tp1061
tp1062
I00
s(g1059
g1060
(I13
I22
tp1063
tp1064
I01
ss(g1052
(I0
I42
tp1065
g1056
tp1066
(dp1067
((I48
I60
tp1068
(I0
I42
tp1069
(I0
I12
tp1070
tp1071
I00
s(g1068
g1069
(I13
I22
tp1072
tp1073
I01
ss((I0
I47
tp1074
g1065
g1054
tp1075
I01
s(g1074
g1065
g1056
tp1076
I01
s(g1074
g1053
g1056
tp1077
I00
s(g1052
g1065
g1054
tp1078
(dp1079
((I48
I60
tp1080
(I0
I42
tp1081
(I23
I47
tp1082
tp1083
I01
s(g1080
g1081
(I48
I58
tp1084
tp1085
I00
ss(g1074
g1053
g1054
tp1086
(dp1087
((I0
I47
tp1088
(I43
I58
tp1089
(I23
I47
tp1090
tp1091
I00
s(g1088
g1089
(I48
I58
tp1092
tp1093
I01
ssss.