(dp0
S'blue'
p1
(dp2
((I0
I183
tp3
(I0
I219
tp4
(I55
I255
tp5
tp6
(dp7
((I133
I183
tp8
(I161
I219
tp9
(I149
I255
tp10
tp11
(dp12
((I133
I161
tp13
(I205
I219
tp14
(I149
I255
tp15
tp16
I01
s(g13
(I161
I204
tp17
g15
tp18
(dp19
((I133
I143
tp20
(I161
I179
tp21
(I149
I255
tp22
tp23
I00
s(g20
(I180
I204
tp24
g22
tp25
I00
s((I144
I161
tp26
g24
g22
tp27
I01
s(g26
g21
g22
tp28
I01
ss((I162
I183
tp29
g17
g15
tp30
I00
s(g29
g14
g15
tp31
I01
ss((I0
I132
tp32
(I0
I160
tp33
(I55
I148
tp34
tp35
(dp36
((I0
I132
tp37
(I0
I46
tp38
(I75
I148
tp39
tp40
(dp41
((I0
I132
tp42
(I35
I46
tp43
(I75
I148
tp44
tp45
I01
s(g42
(I0
I34
tp46
g44
tp47
(dp48
((I0
I132
tp49
(I19
I34
tp50
(I75
I148
tp51
tp52
I01
s(g49
(I0
I18
tp53
g51
tp54
I00
sss(g37
(I47
I160
tp55
(I55
I74
tp56
tp57
I01
s(g37
g38
g56
tp58
(dp59
((I0
I132
tp60
(I0
I34
tp61
(I55
I74
tp62
tp63
I00
s(g60
(I35
I46
tp64
g62
tp65
I01
ss(g37
g55
g39
tp66
I01
ss(g8
g33
g34
tp67
I00
s(g32
g33
g10
tp68
I01
s(g32
g9
g34
tp69
I00
s(g8
g33
g10
tp70
(dp71
((I133
I161
tp72
(I0
I46
tp73
(I149
I255
tp74
tp75
I00
s((I162
I183
tp76
(I47
I160
tp77
g74
tp78
I01
s(g72
g77
g74
tp79
I01
s(g76
g73
g74
tp80
I00
ss(g8
g9
g34
tp81
(dp82
((I162
I183
tp83
(I161
I204
tp84
(I75
I148
tp85
tp86
I00
s(g83
(I205
I219
tp87
g85
tp88
I01
s(g83
g87
(I55
I74
tp89
tp90
I01
s((I133
I161
tp91
g84
g89
tp92
I00
s(g91
g84
g85
tp93
I00
s(g91
g87
g85
tp94
I00
s(g91
g87
g89
tp95
I00
s(g83
g84
g89
tp96
I00
ss(g32
g9
g10
tp97
I01
sssS'pink'
p98
(dp99
((I171
I255
tp100
(I0
I206
tp101
(I72
I255
tp102
tp103
(dp104
((I171
I205
tp105
(I0
I206
tp106
(I72
I99
tp107
tp108
I00
s((I206
I255
tp109
g106
g107
tp110
I00
s(g109
g106
(I100
I255
tp111
tp112
I01
s(g105
g106
g111
tp113
(dp114
((I196
I205
tp115
(I0
I206
tp116
(I100
I255
tp117
tp118
I01
s((I171
I195
tp119
g116
g117
tp120
I00
ssssS'brown'
p121
(dp122
((I33
I225
tp123
(I0
I173
tp124
(I0
I128
tp125
tp126
(dp127
((I33
I96
tp128
(I35
I173
tp129
(I0
I83
tp130
tp131
(dp132
((I33
I96
tp133
(I147
I173
tp134
(I0
I83
tp135
tp136
I01
s(g133
(I35
I146
tp137
g135
tp138
I00
ss(g128
g129
(I84
I128
tp139
tp140
I00
s(g128
(I0
I34
tp141
g130
tp142
I01
s((I97
I225
tp143
g141
g139
tp144
I00
s(g128
g141
g139
tp145
I01
s(g143
g129
g139
tp146
(dp147
((I97
I205
tp148
(I35
I146
tp149
(I84
I128
tp150
tp151
I00
s((I206
I225
tp152
g149
g150
tp153
I01
s(g148
(I147
I173
tp154
g150
tp155
I01
s(g152
g154
g150
tp156
I01
ss(g143
g129
g130
tp157
I01
s(g143
g141
g130
tp158
(dp159
((I206
I225
tp160
(I0
I34
tp161
(I0
I83
tp162
tp163
I01
s((I97
I205
tp164
g161
g162
tp165
I00
ssssS'gray'
p166
(dp167
((I11
I236
tp168
(I28
I222
tp169
(I17
I251
tp170
tp171
(dp172
((I11
I43
tp173
(I110
I222
tp174
(I44
I251
tp175
tp176
I00
s(g173
(I28
I109
tp177
(I17
I43
tp178
tp179
I00
s((I44
I236
tp180
g177
g175
tp181
(dp182
((I44
I224
tp183
(I28
I46
tp184
(I44
I251
tp185
tp186
I01
s((I225
I236
tp187
g184
g185
tp188
I01
s(g187
(I47
I109
tp189
g185
tp190
I00
s(g183
g189
g185
tp191
(dp192
((I44
I224
tp193
(I62
I109
tp194
(I44
I251
tp195
tp196
(dp197
((I44
I224
tp198
(I75
I109
tp199
(I44
I251
tp200
tp201
(dp202
((I44
I224
tp203
(I96
I109
tp204
(I44
I251
tp205
tp206
I01
s(g203
(I75
I95
tp207
g205
tp208
I00
ss(g198
(I62
I74
tp209
g200
tp210
I01
ss(g193
(I47
I61
tp211
g195
tp212
I01
sss(g180
g177
g178
tp213
(dp214
((I44
I224
tp215
(I47
I109
tp216
(I17
I43
tp217
tp218
I00
s((I225
I236
tp219
(I28
I46
tp220
g217
tp221
I01
s(g215
g220
g217
tp222
I00
s(g219
g216
g217
tp223
I00
ss(g173
g177
g175
tp224
I00
s(g180
g174
g178
tp225
I00
s(g173
g174
g178
tp226
I00
s(g180
g174
g175
tp227
(dp228
((I225
I236
tp229
(I182
I222
tp230
(I44
I251
tp231
tp232
I01
s((I44
I224
tp233
g230
g231
tp234
I01
s(g229
(I110
I181
tp235
g231
tp236
I00
s(g233
g235
g231
tp237
I01
ssssS'yellow'
p238
(dp239
((I152
I255
tp240
(I150
I255
tp241
(I0
I141
tp242
tp243
(dp244
((I166
I255
tp245
(I150
I185
tp246
(I43
I141
tp247
tp248
I00
s((I152
I165
tp249
(I186
I255
tp250
g247
tp251
I00
s(g249
g246
g247
tp252
(dp253
((I152
I165
tp254
(I150
I167
tp255
(I43
I94
tp256
tp257
I01
s(g254
(I168
I185
tp258
(I95
I141
tp259
tp260
I00
s(g254
g258
g256
tp261
I01
s(g254
g255
g259
tp262
I00
ss(g249
g250
(I0
I42
tp263
tp264
I01
s(g245
g250
g247
tp265
(dp266
((I227
I255
tp267
(I186
I255
tp268
(I95
I141
tp269
tp270
I00
s((I166
I226
tp271
g268
(I43
I94
tp272
tp273
(dp274
((I166
I202
tp275
(I186
I255
tp276
(I43
I63
tp277
tp278
(dp279
((I166
I191
tp280
(I186
I255
tp281
(I43
I63
tp282
tp283
I00
s((I192
I202
tp284
g281
g282
tp285
I01
ss((I203
I226
tp286
g276
(I64
I94
tp287
tp288
I00
s(g286
g276
g277
tp289
I01
s(g275
g276
g287
tp290
I01
ss(g267
g268
g272
tp291
I01
s(g271
g268
g269
tp292
I00
ss(g245
g250
g263
tp293
I01
s(g249
g246
g263
tp294
I01
s(g245
g246
g263
tp295
(dp296
((I166
I226
tp297
(I150
I167
tp298
(I0
I42
tp299
tp300
I01
s((I227
I255
tp301
(I168
I185
tp302
g299
tp303
I00
s(g297
g302
g299
tp304
I01
s(g301
g298
g299
tp305
I01
ssssS'green'
p306
(dp307
((I0
I224
tp308
(I33
I255
tp309
(I0
I252
tp310
tp311
(dp312
((I0
I156
tp313
(I158
I255
tp314
(I0
I139
tp315
tp316
(dp317
((I0
I156
tp318
(I206
I255
tp319
(I0
I118
tp320
tp321
I01
s(g318
(I158
I205
tp322
(I119
I139
tp323
tp324
I00
s(g318
g319
g323
tp325
I01
s(g318
g322
g320
tp326
I01
ss((I157
I224
tp327
g314
(I140
I252
tp328
tp329
(dp330
((I157
I197
tp331
(I206
I255
tp332
(I140
I252
tp333
tp334
(dp335
((I157
I174
tp336
(I206
I255
tp337
(I140
I252
tp338
tp339
I01
s((I175
I197
tp340
g337
g338
tp341
I00
ss((I198
I224
tp342
(I158
I205
tp343
g333
tp344
I00
s(g342
g332
g333
tp345
I00
s(g331
g343
g333
tp346
I00
ss(g327
(I33
I157
tp347
g328
tp348
I00
s(g313
g347
g315
tp349
(dp350
((I0
I156
tp351
(I96
I157
tp352
(I0
I118
tp353
tp354
I01
s(g351
(I33
I95
tp355
g353
tp356
(dp357
((I0
I156
tp358
(I52
I95
tp359
(I0
I118
tp360
tp361
(dp362
((I0
I156
tp363
(I86
I95
tp364
(I0
I118
tp365
tp366
I01
s(g363
(I52
I85
tp367
g365
tp368
(dp369
((I0
I156
tp370
(I52
I62
tp371
(I0
I118
tp372
tp373
I01
s(g370
(I63
I85
tp374
g372
tp375
(dp376
((I0
I156
tp377
(I75
I85
tp378
(I0
I118
tp379
tp380
I00
s(g377
(I63
I74
tp381
g379
tp382
I01
ssss(g358
(I33
I51
tp383
g360
tp384
I01
ss(g351
g355
(I119
I139
tp385
tp386
I00
s(g351
g352
g385
tp387
I00
ss(g313
g347
g328
tp388
I00
s(g327
g314
g315
tp389
(dp390
((I198
I224
tp391
(I158
I205
tp392
(I119
I139
tp393
tp394
(dp395
((I198
I224
tp396
(I158
I193
tp397
(I119
I139
tp398
tp399
I00
s(g396
(I194
I205
tp400
g398
tp401
I01
ss(g391
(I206
I255
tp402
g393
tp403
I01
s(g391
g392
(I0
I118
tp404
tp405
I00
s((I157
I197
tp406
g402
g404
tp407
I01
s(g406
g392
g393
tp408
(dp409
((I157
I174
tp410
(I158
I193
tp411
(I119
I139
tp412
tp413
I00
s((I175
I197
tp414
(I194
I205
tp415
g412
tp416
I00
s(g410
g415
g412
tp417
I01
s(g414
g411
g412
tp418
I00
ss(g406
g402
g393
tp419
I01
s(g406
g392
g404
tp420
I01
s(g391
g402
g404
tp421
I01
ss(g327
g347
g315
tp422
I00
s(g313
g314
g328
tp423
I00
sssS'violet'
p424
(dp425
((I11
I219
tp426
(I0
I177
tp427
(I17
I255
tp428
tp429
(dp430
((I85
I219
tp431
(I0
I82
tp432
(I17
I113
tp433
tp434
(dp435
((I85
I201
tp436
(I0
I45
tp437
(I17
I47
tp438
tp439
(dp440
((I85
I104
tp441
(I0
I45
tp442
(I17
I47
tp443
tp444
I01
s((I105
I201
tp445
g442
g443
tp446
I00
ss((I202
I219
tp447
(I46
I82
tp448
(I48
I113
tp449
tp450
I01
s(g447
g437
g438
tp451
I01
s(g436
g448
g449
tp452
I01
s(g436
g448
g438
tp453
(dp454
((I85
I104
tp455
(I46
I82
tp456
(I17
I47
tp457
tp458
I01
s((I105
I201
tp459
g456
g457
tp460
I00
ss(g447
g437
g449
tp461
I01
s(g447
g448
g438
tp462
I01
s(g436
g437
g449
tp463
I01
ss(g431
g432
(I114
I255
tp464
tp465
I01
s((I11
I84
tp466
(I83
I177
tp467
g433
tp468
I00
s(g466
g432
g464
tp469
I01
s(g466
g432
g433
tp470
(dp471
((I11
I46
tp472
(I46
I82
tp473
(I48
I113
tp474
tp475
I01
s(g472
(I0
I45
tp476
g474
tp477
I01
s((I47
I84
tp478
g473
g474
tp479
I00
s(g472
g476
(I17
I47
tp480
tp481
I01
s(g472
g473
g480
tp482
I01
s(g478
g473
g480
tp483
I00
s(g478
g476
g480
tp484
I01
s(g478
g476
g474
tp485
I01
ss(g431
g467
g433
tp486
(dp487
((I202
I219
tp488
(I83
I154
tp489
(I17
I47
tp490
tp491
I01
s(g488
(I155
I177
tp492
g490
tp493
I01
s((I85
I201
tp494
g492
g490
tp495
(dp496
((I85
I104
tp497
(I155
I177
tp498
(I17
I47
tp499
tp500
I01
s((I105
I201
tp501
g498
g499
tp502
I00
ss(g494
g489
g490
tp503
I00
s(g494
g489
(I48
I113
tp504
tp505
I00
s(g494
g492
g504
tp506
I00
s(g488
g492
g504
tp507
I01
s(g488
g489
g504
tp508
I01
ss(g466
g467
g464
tp509
I00
s(g431
g467
g464
tp510
(dp511
((I85
I201
tp512
(I83
I154
tp513
(I114
I255
tp514
tp515
(dp516
((I85
I104
tp517
(I83
I154
tp518
(I114
I255
tp519
tp520
I01
s((I105
I201
tp521
g518
g519
tp522
I00
ss(g512
(I155
I177
tp523
g514
tp524
I00
s((I202
I219
tp525
g523
g514
tp526
I01
s(g525
g513
g514
tp527
I01
ssssS'orange'
p528
(dp529
((I169
I255
tp530
(I19
I202
tp531
(I0
I94
tp532
tp533
(dp534
((I169
I224
tp535
(I69
I202
tp536
(I51
I94
tp537
tp538
(dp539
((I195
I224
tp540
(I176
I202
tp541
(I80
I94
tp542
tp543
I01
s((I169
I194
tp544
g541
(I51
I79
tp545
tp546
I01
s(g540
(I69
I175
tp547
g545
tp548
(dp549
((I213
I224
tp550
(I124
I175
tp551
(I51
I79
tp552
tp553
I01
s(g550
(I69
I123
tp554
g552
tp555
I00
s((I195
I212
tp556
g551
g552
tp557
I00
s(g556
g554
g552
tp558
I01
ss(g544
g547
g545
tp559
I00
s(g544
g541
g542
tp560
I01
s(g540
g547
g542
tp561
(dp562
((I213
I224
tp563
(I124
I175
tp564
(I80
I94
tp565
tp566
I01
s(g563
(I69
I123
tp567
g565
tp568
I00
s((I195
I212
tp569
g564
g565
tp570
I00
s(g569
g567
g565
tp571
I01
ss(g544
g547
g542
tp572
I01
s(g540
g541
g545
tp573
(dp574
((I195
I212
tp575
(I176
I202
tp576
(I51
I79
tp577
tp578
I00
s((I213
I224
tp579
g576
g577
tp580
I01
sss((I225
I255
tp581
g536
g537
tp582
(dp583
((I236
I255
tp584
(I69
I175
tp585
(I80
I94
tp586
tp587
I01
s(g584
(I176
I202
tp588
g586
tp589
I01
s(g584
g585
(I51
I79
tp590
tp591
(dp592
((I236
I255
tp593
(I124
I175
tp594
(I51
I79
tp595
tp596
I01
s(g593
(I69
I123
tp597
g595
tp598
(dp599
((I236
I255
tp600
(I69
I108
tp601
(I51
I79
tp602
tp603
I00
s(g600
(I109
I123
tp604
g602
tp605
I01
sss(g584
g588
g590
tp606
I01
s((I225
I235
tp607
g588
g586
tp608
I01
s(g607
g585
g586
tp609
(dp610
((I225
I235
tp611
(I69
I123
tp612
(I80
I94
tp613
tp614
I01
s(g611
(I124
I175
tp615
g613
tp616
I00
ss(g607
g588
g590
tp617
I01
s(g607
g585
g590
tp618
I01
ss(g581
(I19
I68
tp619
g537
tp620
(dp621
((I236
I255
tp622
(I19
I68
tp623
(I80
I94
tp624
tp625
I01
s(g622
g623
(I51
I79
tp626
tp627
I00
s((I225
I235
tp628
g623
g626
tp629
I00
s(g628
g623
g624
tp630
I01
ss(g581
g536
(I0
I50
tp631
tp632
(dp633
((I225
I235
tp634
(I176
I202
tp635
(I34
I50
tp636
tp637
I01
s((I236
I255
tp638
g635
g636
tp639
I01
s(g638
(I69
I175
tp640
g636
tp641
I01
s(g634
g640
(I0
I33
tp642
tp643
I01
s(g634
g640
g636
tp644
I01
s(g638
g640
g642
tp645
I01
s(g638
g635
g642
tp646
I00
s(g634
g635
g642
tp647
(dp648
((I225
I235
tp649
(I176
I202
tp650
(I0
I16
tp651
tp652
I00
s(g649
g650
(I17
I33
tp653
tp654
I01
sss(g581
g619
g631
tp655
(dp656
((I236
I255
tp657
(I19
I68
tp658
(I0
I33
tp659
tp660
I00
s(g657
g658
(I34
I50
tp661
tp662
I01
s((I225
I235
tp663
g658
g659
tp664
(dp665
((I225
I235
tp666
(I19
I68
tp667
(I17
I33
tp668
tp669
I00
s(g666
g667
(I0
I16
tp670
tp671
I01
ss(g663
g658
g661
tp672
I00
ss(g535
g619
g631
tp673
(dp674
((I195
I224
tp675
(I19
I68
tp676
(I0
I33
tp677
tp678
(dp679
((I195
I212
tp680
(I19
I68
tp681
(I17
I33
tp682
tp683
I01
s((I213
I224
tp684
g681
g682
tp685
I01
s(g684
g681
(I0
I16
tp686
tp687
I00
s(g680
g681
g686
tp688
I01
ss(g675
g676
(I34
I50
tp689
tp690
I00
s((I169
I194
tp691
g676
g689
tp692
I01
s(g691
g676
g677
tp693
I01
ss(g535
g619
g537
tp694
(dp695
((I169
I194
tp696
(I19
I68
tp697
(I51
I79
tp698
tp699
I00
s(g696
g697
(I80
I94
tp700
tp701
I01
s((I195
I224
tp702
g697
g698
tp703
I00
s(g702
g697
g700
tp704
I00
ss(g535
g536
g631
tp705
(dp706
((I195
I224
tp707
(I69
I175
tp708
(I0
I33
tp709
tp710
I01
s(g707
g708
(I34
I50
tp711
tp712
(dp713
((I195
I212
tp714
(I124
I175
tp715
(I34
I50
tp716
tp717
(dp718
((I195
I212
tp719
(I151
I175
tp720
(I34
I50
tp721
tp722
I00
s(g719
(I124
I150
tp723
g721
tp724
I01
ss((I213
I224
tp725
g715
g716
tp726
(dp727
((I213
I224
tp728
(I124
I150
tp729
(I34
I50
tp730
tp731
I01
s(g728
(I151
I175
tp732
g730
tp733
I00
ss(g714
(I69
I123
tp734
g716
tp735
I01
s(g725
g734
g716
tp736
I01
ss((I169
I194
tp737
(I176
I202
tp738
g711
tp739
I01
s(g707
g738
g711
tp740
I01
s(g737
g738
g709
tp741
(dp742
((I169
I194
tp743
(I176
I202
tp744
(I17
I33
tp745
tp746
I00
s(g743
g744
(I0
I16
tp747
tp748
I01
ss(g737
g708
g709
tp749
(dp750
((I169
I194
tp751
(I124
I175
tp752
(I0
I16
tp753
tp754
(dp755
((I169
I194
tp756
(I151
I175
tp757
(I0
I16
tp758
tp759
I00
s(g756
(I124
I150
tp760
g758
tp761
I01
ss(g751
(I69
I123
tp762
g753
tp763
I01
s(g751
g752
(I17
I33
tp764
tp765
I00
s(g751
g762
g764
tp766
I01
ss(g707
g738
g709
tp767
(dp768
((I213
I224
tp769
(I176
I202
tp770
(I0
I16
tp771
tp772
I00
s((I195
I212
tp773
g770
(I17
I33
tp774
tp775
I01
s(g769
g770
g774
tp776
I01
s(g773
g770
g771
tp777
I00
ss(g737
g708
g711
tp778
I00
ssssS'cyan'
p779
(dp780
((I0
I220
tp781
(I77
I255
tp782
(I60
I255
tp783
tp784
(dp785
((I0
I100
tp786
(I77
I193
tp787
(I86
I255
tp788
tp789
(dp790
((I0
I100
tp791
(I135
I193
tp792
(I86
I155
tp793
tp794
I01
s(g791
(I77
I134
tp795
(I156
I255
tp796
tp797
I00
s(g791
g795
g793
tp798
I01
s(g791
g792
g796
tp799
I01
ss(g786
(I194
I255
tp800
g788
tp801
I01
s((I101
I220
tp802
g800
(I60
I85
tp803
tp804
(dp805
((I126
I220
tp806
(I235
I255
tp807
(I60
I85
tp808
tp809
I00
s((I101
I125
tp810
(I194
I234
tp811
g808
tp812
I01
s(g810
g807
g808
tp813
I00
s(g806
g811
g808
tp814
I00
ss(g786
g800
g803
tp815
I00
s(g802
g787
g788
tp816
I00
s(g802
g800
g788
tp817
(dp818
((I101
I125
tp819
(I194
I234
tp820
(I86
I155
tp821
tp822
I01
s((I126
I220
tp823
(I235
I255
tp824
(I156
I255
tp825
tp826
I01
s(g819
g820
g825
tp827
I01
s(g823
g824
g821
tp828
I00
s(g819
g824
g825
tp829
I01
s(g823
g820
g825
tp830
(dp831
((I201
I220
tp832
(I194
I234
tp833
(I156
I255
tp834
tp835
I00
s((I126
I200
tp836
g833
g834
tp837
(dp838
((I126
I189
tp839
(I194
I234
tp840
(I156
I255
tp841
tp842
I00
s((I190
I200
tp843
g840
g841
tp844
I01
sss(g819
g824
g821
tp845
(dp846
((I116
I125
tp847
(I235
I255
tp848
(I86
I155
tp849
tp850
I01
s((I101
I115
tp851
g848
g849
tp852
I00
ss(g823
g820
g821
tp853
I00
ss(g802
g787
g803
tp854
I00
s(g786
g787
g803
tp855
I00
sssS'white'
p856
(dp857
((I205
I255
tp858
(I216
I255
tp859
(I113
I255
tp860
tp861
I01
ssS'tan'
p862
(dp863
((I159
I255
tp864
(I133
I254
tp865
(I39
I158
tp866
tp867
(dp868
((I204
I255
tp869
(I231
I254
tp870
(I39
I79
tp871
tp872
I00
s(g869
(I133
I230
tp873
(I80
I158
tp874
tp875
I01
s((I159
I203
tp876
g870
g871
tp877
I01
s(g876
g873
g874
tp878
(dp879
((I159
I203
tp880
(I133
I159
tp881
(I148
I158
tp882
tp883
I01
s(g880
g881
(I80
I147
tp884
tp885
I01
s(g880
(I160
I230
tp886
g882
tp887
(dp888
((I159
I203
tp889
(I178
I230
tp890
(I148
I158
tp891
tp892
I00
s(g889
(I160
I177
tp893
g891
tp894
I01
ss(g880
g886
g884
tp895
(dp896
((I159
I203
tp897
(I160
I177
tp898
(I80
I147
tp899
tp900
I00
s(g897
(I178
I230
tp901
g899
tp902
(dp903
((I159
I203
tp904
(I220
I230
tp905
(I80
I147
tp906
tp907
I01
s(g904
(I178
I219
tp908
g906
tp909
(dp910
((I159
I203
tp911
(I209
I219
tp912
(I80
I147
tp913
tp914
I01
s(g911
(I178
I208
tp915
g913
tp916
I00
sssss(g869
g870
g874
tp917
(dp918
((I204
I242
tp919
(I231
I254
tp920
(I80
I147
tp921
tp922
I00
s((I243
I255
tp923
g920
g921
tp924
I00
s(g919
g920
(I148
I158
tp925
tp926
I01
s(g923
g920
g925
tp927
I01
ss(g869
g873
g871
tp928
(dp929
((I204
I242
tp930
(I133
I159
tp931
(I39
I79
tp932
tp933
I01
s((I243
I255
tp934
g931
g932
tp935
I01
s(g934
(I160
I230
tp936
g932
tp937
I00
s(g930
g936
g932
tp938
I01
ss(g876
g873
g871
tp939
I00
s(g876
g870
g874
tp940
(dp941
((I159
I203
tp942
(I231
I254
tp943
(I80
I147
tp944
tp945
I00
s(g942
g943
(I148
I158
tp946
tp947
I01
ssssS'red'
p948
(dp949
((I83
I255
tp950
(I0
I128
tp951
(I0
I144
tp952
tp953
(dp954
((I119
I255
tp955
(I0
I51
tp956
(I73
I144
tp957
tp958
(dp959
((I191
I255
tp960
(I0
I51
tp961
(I73
I110
tp962
tp963
I01
s((I119
I190
tp964
g961
g962
tp965
(dp966
((I180
I190
tp967
(I0
I51
tp968
(I92
I110
tp969
tp970
I01
s(g967
g968
(I73
I91
tp971
tp972
I01
s((I119
I179
tp973
g968
g969
tp974
I00
s(g973
g968
g971
tp975
I00
ss(g964
g961
(I111
I144
tp976
tp977
(dp978
((I180
I190
tp979
(I0
I51
tp980
(I111
I144
tp981
tp982
I01
s((I119
I179
tp983
g980
g981
tp984
I00
ss(g960
g961
g976
tp985
I01
ss(g955
(I52
I128
tp986
g957
tp987
(dp988
((I191
I255
tp989
(I52
I109
tp990
(I111
I144
tp991
tp992
I01
s((I119
I190
tp993
g990
(I73
I110
tp994
tp995
(dp996
((I119
I179
tp997
(I52
I109
tp998
(I73
I91
tp999
tp1000
I00
s(g997
g998
(I92
I110
tp1001
tp1002
I00
s((I180
I190
tp1003
g998
g999
tp1004
I01
s(g1003
g998
g1001
tp1005
I01
ss(g989
(I110
I128
tp1006
g991
tp1007
I01
s(g989
g990
g994
tp1008
I01
s(g993
g1006
g991
tp1009
I00
s(g989
g1006
g994
tp1010
(dp1011
((I191
I255
tp1012
(I110
I128
tp1013
(I73
I91
tp1014
tp1015
I00
s(g1012
g1013
(I92
I110
tp1016
tp1017
I01
ss(g993
g1006
g994
tp1018
(dp1019
((I180
I190
tp1020
(I110
I128
tp1021
(I73
I91
tp1022
tp1023
I00
s((I119
I179
tp1024
g1021
(I92
I110
tp1025
tp1026
I00
s(g1024
g1021
g1022
tp1027
I00
s(g1020
g1021
g1025
tp1028
I01
ss(g993
g990
g991
tp1029
I00
ss(g955
g956
(I0
I72
tp1030
tp1031
(dp1032
((I119
I190
tp1033
(I0
I51
tp1034
(I0
I62
tp1035
tp1036
(dp1037
((I119
I179
tp1038
(I0
I51
tp1039
(I0
I11
tp1040
tp1041
I01
s((I180
I190
tp1042
g1039
(I12
I62
tp1043
tp1044
I01
s(g1042
g1039
g1040
tp1045
I01
s(g1038
g1039
g1043
tp1046
(dp1047
((I119
I168
tp1048
(I0
I51
tp1049
(I12
I22
tp1050
tp1051
(dp1052
((I119
I152
tp1053
(I0
I51
tp1054
(I12
I22
tp1055
tp1056
I00
s((I153
I168
tp1057
g1054
g1055
tp1058
I01
ss(g1048
g1049
(I23
I62
tp1059
tp1060
I01
s((I169
I179
tp1061
g1049
g1059
tp1062
I01
s(g1061
g1049
g1050
tp1063
I01
sss((I191
I255
tp1064
g1034
(I63
I72
tp1065
tp1066
I01
s(g1033
g1034
g1065
tp1067
I01
s(g1064
g1034
g1035
tp1068
I01
ss(g955
g986
g1030
tp1069
(dp1070
((I119
I190
tp1071
(I52
I109
tp1072
(I63
I72
tp1073
tp1074
I01
s((I191
I255
tp1075
(I110
I128
tp1076
(I0
I62
tp1077
tp1078
(dp1079
((I191
I255
tp1080
(I110
I128
tp1081
(I12
I62
tp1082
tp1083
I00
s(g1080
g1081
(I0
I11
tp1084
tp1085
I01
ss(g1075
g1072
g1077
tp1086
(dp1087
((I191
I255
tp1088
(I52
I109
tp1089
(I0
I11
tp1090
tp1091
I01
s(g1088
g1089
(I12
I62
tp1092
tp1093
(dp1094
((I191
I255
tp1095
(I52
I109
tp1096
(I23
I62
tp1097
tp1098
I00
s(g1095
g1096
(I12
I22
tp1099
tp1100
I01
sss(g1075
g1072
g1073
tp1101
I01
s(g1075
g1076
g1073
tp1102
I01
s(g1071
g1072
g1077
tp1103
(dp1104
((I119
I179
tp1105
(I52
I109
tp1106
(I0
I11
tp1107
tp1108
I00
s(g1105
g1106
(I12
I62
tp1109
tp1110
I00
s((I180
I190
tp1111
g1106
g1107
tp1112
I01
s(g1111
g1106
g1109
tp1113
I01
ss(g1071
g1076
g1073
tp1114
(dp1115
((I119
I179
tp1116
(I110
I128
tp1117
(I63
I72
tp1118
tp1119
I00
s((I180
I190
tp1120
g1117
g1118
tp1121
I01
ss(g1071
g1076
g1077
tp1122
(dp1123
((I119
I179
tp1124
(I110
I128
tp1125
(I12
I62
tp1126
tp1127
I00
s(g1124
g1125
(I0
I11
tp1128
tp1129
I01
s((I180
I190
tp1130
g1125
g1126
tp1131
I00
s(g1130
g1125
g1128
tp1132
I01
sss((I83
I118
tp1133
g986
g1030
tp1134
(dp1135
((I83
I118
tp1136
(I110
I128
tp1137
(I63
I72
tp1138
tp1139
I01
s(g1136
(I52
I109
tp1140
(I0
I62
tp1141
tp1142
I00
s(g1136
g1137
g1141
tp1143
I00
s(g1136
g1140
g1138
tp1144
I00
ss(g1133
g986
g957
tp1145
I00
s(g1133
g956
g957
tp1146
I00
s(g1133
g956
g1030
tp1147
(dp1148
((I83
I118
tp1149
(I0
I51
tp1150
(I0
I62
tp1151
tp1152
(dp1153
((I83
I118
tp1154
(I0
I51
tp1155
(I12
I62
tp1156
tp1157
I00
s(g1154
g1155
(I0
I11
tp1158
tp1159
I01
ss(g1149
g1150
(I63
I72
tp1160
tp1161
I01
ssssS'black'
p1162
(dp1163
((I0
I60
tp1164
(I0
I58
tp1165
(I0
I58
tp1166
tp1167
(dp1168
((I0
I44
tp1169
(I43
I58
tp1170
(I23
I58
tp1171
tp1172
(dp1173
((I0
I44
tp1174
(I43
I58
tp1175
(I48
I58
tp1176
tp1177
I01
s(g1174
g1175
(I23
I47
tp1178
tp1179
I00
ss(g1169
g1170
(I0
I22
tp1180
tp1181
I00
s(g1169
(I0
I42
tp1182
g1180
tp1183
I01
s((I45
I60
tp1184
g1182
g1171
tp1185
(dp1186
((I45
I60
tp1187
(I0
I42
tp1188
(I48
I58
tp1189
tp1190
I01
s(g1187
g1188
(I23
I47
tp1191
tp1192
I00
ss(g1184
g1170
g1180
tp1193
(dp1194
((I45
I60
tp1195
(I43
I58
tp1196
(I0
I12
tp1197
tp1198
I00
s(g1195
g1196
(I13
I22
tp1199
tp1200
I01
ss(g1184
g1170
g1171
tp1201
I00
s(g1184
g1182
g1180
tp1202
(dp1203
((I45
I60
tp1204
(I0
I42
tp1205
(I13
I22
tp1206
tp1207
I01
s(g1204
g1205
(I0
I12
tp1208
tp1209
I00
ss(g1169
g1182
g1171
tp1210
I01
sss.