(dp0
S'blue'
p1
(dp2
((I0
I183
tp3
(I0
I219
tp4
(I53
I255
tp5
tp6
(dp7
((I127
I183
tp8
(I161
I219
tp9
(I53
I148
tp10
tp11
(dp12
((I162
I183
tp13
(I161
I204
tp14
(I75
I148
tp15
tp16
I00
s(g13
g14
(I53
I74
tp17
tp18
I00
s(g13
(I205
I219
tp19
g15
tp20
I01
s((I127
I161
tp21
g14
g17
tp22
I00
s(g21
g14
g15
tp23
I00
s(g21
g19
g15
tp24
I00
s(g13
g19
g17
tp25
I01
s(g21
g19
g17
tp26
I00
ss((I0
I126
tp27
g9
g10
tp28
(dp29
((I11
I126
tp30
(I205
I219
tp31
(I53
I74
tp32
tp33
I00
s(g30
(I161
I204
tp34
g32
tp35
I00
s((I0
I10
tp36
g31
(I75
I148
tp37
tp38
I01
s(g30
g34
g37
tp39
I00
s(g30
g31
g37
tp40
I00
s(g36
g34
g37
tp41
I00
s(g36
g34
g32
tp42
I01
s(g36
g31
g32
tp43
I00
ss(g8
(I0
I160
tp44
g10
tp45
(dp46
((I162
I183
tp47
(I11
I160
tp48
(I53
I74
tp49
tp50
I00
s(g47
(I0
I10
tp51
(I75
I148
tp52
tp53
I00
s(g47
g48
g52
tp54
I00
s((I127
I161
tp55
g48
g52
tp56
I00
s(g55
g51
g52
tp57
I00
s(g55
g48
g49
tp58
I00
s(g55
g51
g49
tp59
I00
s(g47
g51
g49
tp60
I01
ss(g8
g9
(I149
I255
tp61
tp62
(dp63
((I127
I161
tp64
(I205
I219
tp65
(I149
I255
tp66
tp67
I01
s(g64
(I161
I204
tp68
g66
tp69
I01
s((I162
I183
tp70
g68
g66
tp71
I00
s(g70
g65
g66
tp72
I01
ss(g27
g44
g10
tp73
(dp74
((I0
I10
tp75
(I11
I160
tp76
(I75
I148
tp77
tp78
I01
s(g75
(I0
I10
tp79
(I53
I74
tp80
tp81
I01
s((I11
I126
tp82
g76
g80
tp83
I00
s(g82
g76
g77
tp84
(dp85
((I11
I126
tp86
(I11
I46
tp87
(I134
I148
tp88
tp89
(dp90
((I11
I126
tp91
(I35
I46
tp92
(I134
I148
tp93
tp94
I01
s(g91
(I11
I34
tp95
g93
tp96
I00
ss(g86
(I47
I160
tp97
(I75
I133
tp98
tp99
I00
s(g86
g97
g88
tp100
I01
s(g86
g87
g98
tp101
I01
ss(g75
g76
g80
tp102
(dp103
((I0
I10
tp104
(I47
I160
tp105
(I53
I74
tp106
tp107
I00
s(g104
(I11
I46
tp108
g106
tp109
I01
ss(g82
g79
g80
tp110
I01
s(g82
g79
g77
tp111
(dp112
((I11
I126
tp113
(I0
I10
tp114
(I75
I133
tp115
tp116
I00
s(g113
g114
(I134
I148
tp117
tp118
I01
ss(g75
g79
g77
tp119
I01
ss(g27
g9
g61
tp120
(dp121
((I11
I126
tp122
(I161
I204
tp123
(I149
I255
tp124
tp125
I01
s(g122
(I205
I219
tp126
g124
tp127
I01
s((I0
I10
tp128
g126
g124
tp129
I01
s(g128
g123
g124
tp130
(dp131
((I0
I10
tp132
(I161
I179
tp133
(I149
I255
tp134
tp135
I01
s(g132
(I180
I204
tp136
g134
tp137
I00
sss(g8
g44
g61
tp138
(dp139
((I127
I161
tp140
(I11
I160
tp141
(I149
I255
tp142
tp143
(dp144
((I142
I161
tp145
(I47
I160
tp146
(I149
I255
tp147
tp148
I01
s((I127
I141
tp149
g146
g147
tp150
I01
s(g149
(I11
I46
tp151
g147
tp152
(dp153
((I127
I141
tp154
(I11
I34
tp155
(I149
I255
tp156
tp157
I01
s(g154
(I35
I46
tp158
g156
tp159
I00
ss(g145
g151
g147
tp160
I00
ss((I162
I183
tp161
g141
g142
tp162
I00
s(g140
(I0
I10
tp163
g142
tp164
(dp165
((I142
I161
tp166
(I0
I10
tp167
(I149
I255
tp168
tp169
I01
s((I127
I141
tp170
g167
g168
tp171
I00
ss(g161
g163
g142
tp172
I01
ss(g27
g44
g61
tp173
I01
sssS'pink'
p174
(dp175
((I171
I255
tp176
(I0
I206
tp177
(I72
I255
tp178
tp179
(dp180
((I171
I195
tp181
(I0
I206
tp182
(I72
I99
tp183
tp184
I01
s((I196
I255
tp185
g182
(I100
I255
tp186
tp187
I01
s(g185
g182
g183
tp188
I00
s(g181
g182
g186
tp189
I01
sssS'brown'
p190
(dp191
((I33
I225
tp192
(I0
I173
tp193
(I0
I128
tp194
tp195
(dp196
((I33
I96
tp197
(I35
I173
tp198
(I0
I83
tp199
tp200
(dp201
((I33
I96
tp202
(I147
I173
tp203
(I0
I83
tp204
tp205
I01
s(g202
(I35
I146
tp206
g204
tp207
I00
ss(g197
g198
(I84
I128
tp208
tp209
I00
s(g197
(I0
I34
tp210
g199
tp211
I01
s((I97
I225
tp212
g210
g208
tp213
I00
s(g197
g210
g208
tp214
I01
s(g212
g198
g208
tp215
(dp216
((I97
I205
tp217
(I35
I146
tp218
(I84
I128
tp219
tp220
I00
s((I206
I225
tp221
g218
g219
tp222
I01
s(g217
(I147
I173
tp223
g219
tp224
I01
s(g221
g223
g219
tp225
I01
ss(g212
g198
g199
tp226
I01
s(g212
g210
g199
tp227
(dp228
((I206
I225
tp229
(I0
I34
tp230
(I0
I83
tp231
tp232
I01
s((I97
I205
tp233
g230
g231
tp234
I00
ssssS'gray'
p235
(dp236
((I11
I236
tp237
(I28
I222
tp238
(I17
I255
tp239
tp240
(dp241
((I11
I43
tp242
(I28
I74
tp243
(I44
I255
tp244
tp245
I00
s((I44
I236
tp246
g243
g244
tp247
(dp248
((I225
I236
tp249
(I47
I74
tp250
(I44
I183
tp251
tp252
(dp253
((I225
I236
tp254
(I62
I74
tp255
(I44
I126
tp256
tp257
I00
s(g254
g255
(I127
I183
tp258
tp259
I00
s(g254
(I47
I61
tp260
g256
tp261
I00
s(g254
g260
g258
tp262
I01
ss((I44
I224
tp263
(I28
I46
tp264
g251
tp265
I00
s(g249
g264
g251
tp266
I00
s(g263
g264
(I184
I255
tp267
tp268
I00
s(g249
g264
g267
tp269
I01
s(g263
g250
g267
tp270
I00
s(g263
g250
g251
tp271
(dp272
((I44
I224
tp273
(I47
I61
tp274
(I44
I126
tp275
tp276
I01
s(g273
(I62
I74
tp277
(I127
I183
tp278
tp279
I01
s(g273
g274
g278
tp280
I01
s(g273
g277
g275
tp281
(dp282
((I44
I224
tp283
(I62
I74
tp284
(I44
I103
tp285
tp286
(dp287
((I44
I224
tp288
(I62
I74
tp289
(I86
I103
tp290
tp291
I01
s(g288
g289
(I44
I85
tp292
tp293
I00
ss(g283
g284
(I104
I126
tp294
tp295
I01
sss(g249
g250
g267
tp296
I01
ss(g242
(I75
I222
tp297
g244
tp298
I00
s(g246
g297
(I17
I43
tp299
tp300
I00
s(g246
g297
g244
tp301
(dp302
((I225
I236
tp303
(I75
I222
tp304
(I44
I183
tp305
tp306
I00
s((I44
I224
tp307
g304
g305
tp308
(dp309
((I44
I224
tp310
(I75
I222
tp311
(I127
I183
tp312
tp313
I01
s(g310
g311
(I44
I126
tp314
tp315
(dp316
((I44
I224
tp317
(I75
I222
tp318
(I44
I103
tp319
tp320
(dp321
((I44
I224
tp322
(I75
I222
tp323
(I44
I85
tp324
tp325
I00
s(g322
g323
(I86
I103
tp326
tp327
I01
ss(g317
g318
(I104
I126
tp328
tp329
I01
sss(g303
g304
(I184
I255
tp330
tp331
I01
s(g307
g304
g330
tp332
(dp333
((I44
I224
tp334
(I75
I222
tp335
(I184
I194
tp336
tp337
I01
s(g334
g335
(I195
I255
tp338
tp339
(dp340
((I44
I224
tp341
(I75
I222
tp342
(I207
I255
tp343
tp344
I00
s(g341
g342
(I195
I206
tp345
tp346
I01
ssss(g242
g243
g299
tp347
I00
s(g246
g243
g299
tp348
(dp349
((I44
I224
tp350
(I47
I74
tp351
(I17
I43
tp352
tp353
I00
s((I225
I236
tp354
g351
g352
tp355
I00
s(g354
(I28
I46
tp356
g352
tp357
I01
s(g350
g356
g352
tp358
I00
ss(g242
g297
g299
tp359
I01
sssS'yellow'
p360
(dp361
((I152
I255
tp362
(I150
I255
tp363
(I0
I141
tp364
tp365
(dp366
((I166
I255
tp367
(I150
I185
tp368
(I43
I141
tp369
tp370
I00
s((I152
I165
tp371
(I186
I255
tp372
g369
tp373
I00
s(g371
g368
g369
tp374
(dp375
((I152
I165
tp376
(I150
I167
tp377
(I43
I94
tp378
tp379
I01
s(g376
(I168
I185
tp380
(I95
I141
tp381
tp382
I00
s(g376
g380
g378
tp383
I01
s(g376
g377
g381
tp384
I00
ss(g371
g372
(I0
I42
tp385
tp386
I01
s(g367
g372
g369
tp387
(dp388
((I227
I255
tp389
(I186
I255
tp390
(I95
I141
tp391
tp392
I00
s((I166
I226
tp393
g390
(I43
I94
tp394
tp395
(dp396
((I166
I202
tp397
(I186
I255
tp398
(I43
I63
tp399
tp400
(dp401
((I166
I191
tp402
(I186
I255
tp403
(I43
I63
tp404
tp405
I00
s((I192
I202
tp406
g403
g404
tp407
I01
ss((I203
I226
tp408
g398
(I64
I94
tp409
tp410
I00
s(g408
g398
g399
tp411
I01
s(g397
g398
g409
tp412
I01
ss(g389
g390
g394
tp413
I01
s(g393
g390
g391
tp414
I00
ss(g367
g372
g385
tp415
I01
s(g371
g368
g385
tp416
I01
s(g367
g368
g385
tp417
(dp418
((I166
I226
tp419
(I150
I167
tp420
(I0
I42
tp421
tp422
I01
s((I227
I255
tp423
(I168
I185
tp424
g421
tp425
I00
s(g419
g424
g421
tp426
I01
s(g423
g420
g421
tp427
I01
ssssS'green'
p428
(dp429
((I0
I224
tp430
(I33
I255
tp431
(I0
I252
tp432
tp433
(dp434
((I0
I143
tp435
(I33
I205
tp436
(I140
I252
tp437
tp438
I00
s(g435
g436
(I0
I139
tp439
tp440
(dp441
((I0
I143
tp442
(I96
I205
tp443
(I119
I139
tp444
tp445
I01
s(g442
(I33
I95
tp446
(I0
I118
tp447
tp448
(dp449
((I0
I143
tp450
(I86
I95
tp451
(I0
I32
tp452
tp453
I01
s(g450
(I33
I85
tp454
g452
tp455
I01
s(g450
g454
(I33
I118
tp456
tp457
(dp458
((I0
I143
tp459
(I52
I85
tp460
(I33
I43
tp461
tp462
I01
s(g459
(I33
I51
tp463
(I44
I118
tp464
tp465
I00
s(g459
g460
g464
tp466
I00
s(g459
g463
g461
tp467
I00
ss(g450
g451
g456
tp468
(dp469
((I0
I143
tp470
(I86
I95
tp471
(I44
I118
tp472
tp473
I00
s(g470
g471
(I33
I43
tp474
tp475
I01
sss(g442
g443
g447
tp476
I01
s(g442
g446
g444
tp477
I00
ss((I144
I224
tp478
g436
g437
tp479
I00
s(g435
(I206
I255
tp480
g439
tp481
I01
s(g435
g480
g437
tp482
I01
s(g478
g436
g439
tp483
(dp484
((I198
I224
tp485
(I96
I205
tp486
(I0
I118
tp487
tp488
I00
s(g485
(I33
I95
tp489
(I119
I139
tp490
tp491
(dp492
((I198
I224
tp493
(I33
I85
tp494
(I119
I139
tp495
tp496
I00
s(g493
(I86
I95
tp497
g495
tp498
I01
ss((I144
I197
tp499
g489
g487
tp500
I00
s(g485
g489
g487
tp501
I01
s(g499
g489
g490
tp502
(dp503
((I144
I197
tp504
(I86
I95
tp505
(I119
I139
tp506
tp507
I01
s(g504
(I33
I85
tp508
g506
tp509
I00
ss(g499
g486
g490
tp510
I01
s(g499
g486
g487
tp511
(dp512
((I144
I197
tp513
(I96
I205
tp514
(I0
I32
tp515
tp516
I01
s(g513
g514
(I33
I118
tp517
tp518
(dp519
((I144
I197
tp520
(I96
I205
tp521
(I44
I118
tp522
tp523
I00
s(g520
g521
(I33
I43
tp524
tp525
I01
sss(g485
g486
g490
tp526
I01
ss(g478
g480
g437
tp527
I00
s(g478
g480
g439
tp528
(dp529
((I144
I197
tp530
(I206
I255
tp531
(I119
I139
tp532
tp533
I01
s((I198
I224
tp534
g531
g532
tp535
I01
s(g530
g531
(I0
I118
tp536
tp537
I01
s(g534
g531
g536
tp538
(dp539
((I198
I224
tp540
(I206
I255
tp541
(I0
I32
tp542
tp543
I00
s(g540
g541
(I33
I118
tp544
tp545
(dp546
((I198
I224
tp547
(I206
I255
tp548
(I33
I43
tp549
tp550
I01
s(g547
g548
(I44
I118
tp551
tp552
I00
ssssssS'violet'
p553
(dp554
((I11
I219
tp555
(I0
I177
tp556
(I17
I255
tp557
tp558
(dp559
((I85
I219
tp560
(I0
I82
tp561
(I17
I113
tp562
tp563
(dp564
((I85
I201
tp565
(I0
I45
tp566
(I17
I47
tp567
tp568
(dp569
((I85
I104
tp570
(I0
I45
tp571
(I17
I47
tp572
tp573
I01
s((I105
I201
tp574
g571
g572
tp575
I00
ss((I202
I219
tp576
(I46
I82
tp577
(I48
I113
tp578
tp579
I01
s(g576
g566
g567
tp580
I01
s(g565
g577
g578
tp581
I01
s(g565
g577
g567
tp582
(dp583
((I85
I104
tp584
(I46
I82
tp585
(I17
I47
tp586
tp587
I01
s((I105
I201
tp588
g585
g586
tp589
I00
ss(g576
g566
g578
tp590
I01
s(g576
g577
g567
tp591
I01
s(g565
g566
g578
tp592
I01
ss(g560
g561
(I114
I255
tp593
tp594
I01
s((I11
I84
tp595
(I83
I177
tp596
g562
tp597
I00
s(g595
g561
g593
tp598
I01
s(g595
g561
g562
tp599
(dp600
((I11
I46
tp601
(I46
I82
tp602
(I48
I113
tp603
tp604
I01
s(g601
(I0
I45
tp605
g603
tp606
I01
s((I47
I84
tp607
g602
g603
tp608
I01
s(g601
g605
(I17
I47
tp609
tp610
I01
s(g601
g602
g609
tp611
I01
s(g607
g602
g609
tp612
I00
s(g607
g605
g609
tp613
I01
s(g607
g605
g603
tp614
I01
ss(g560
g596
g562
tp615
(dp616
((I202
I219
tp617
(I83
I154
tp618
(I17
I47
tp619
tp620
I01
s(g617
(I155
I177
tp621
g619
tp622
I01
s((I85
I201
tp623
g621
g619
tp624
(dp625
((I85
I104
tp626
(I155
I177
tp627
(I17
I47
tp628
tp629
I01
s((I105
I201
tp630
g627
g628
tp631
I00
ss(g623
g618
g619
tp632
I00
s(g623
g618
(I48
I113
tp633
tp634
I00
s(g623
g621
g633
tp635
I00
s(g617
g621
g633
tp636
I01
s(g617
g618
g633
tp637
I01
ss(g595
g596
g593
tp638
I00
s(g560
g596
g593
tp639
(dp640
((I85
I201
tp641
(I83
I154
tp642
(I114
I255
tp643
tp644
(dp645
((I85
I104
tp646
(I83
I154
tp647
(I114
I255
tp648
tp649
I01
s((I105
I201
tp650
g647
g648
tp651
I00
ss(g641
(I155
I177
tp652
g643
tp653
I00
s((I202
I219
tp654
g652
g643
tp655
I01
s(g654
g642
g643
tp656
I01
ssssS'orange'
p657
(dp658
((I169
I255
tp659
(I19
I202
tp660
(I0
I94
tp661
tp662
(dp663
((I169
I224
tp664
(I69
I202
tp665
(I51
I94
tp666
tp667
(dp668
((I195
I224
tp669
(I176
I202
tp670
(I80
I94
tp671
tp672
I01
s((I169
I194
tp673
g670
(I51
I79
tp674
tp675
I01
s(g669
(I69
I175
tp676
g674
tp677
(dp678
((I213
I224
tp679
(I124
I175
tp680
(I51
I79
tp681
tp682
I01
s(g679
(I69
I123
tp683
g681
tp684
I00
s((I195
I212
tp685
g680
g681
tp686
I00
s(g685
g683
g681
tp687
I01
ss(g673
g676
g674
tp688
I00
s(g673
g670
g671
tp689
I01
s(g669
g676
g671
tp690
(dp691
((I213
I224
tp692
(I124
I175
tp693
(I80
I94
tp694
tp695
I01
s(g692
(I69
I123
tp696
g694
tp697
I00
s((I195
I212
tp698
g693
g694
tp699
I00
s(g698
g696
g694
tp700
I01
ss(g673
g676
g671
tp701
I01
s(g669
g670
g674
tp702
(dp703
((I195
I212
tp704
(I176
I202
tp705
(I51
I79
tp706
tp707
I00
s((I213
I224
tp708
g705
g706
tp709
I01
sss((I225
I255
tp710
g665
g666
tp711
(dp712
((I236
I255
tp713
(I69
I175
tp714
(I80
I94
tp715
tp716
I01
s(g713
(I176
I202
tp717
g715
tp718
I01
s(g713
g714
(I51
I79
tp719
tp720
(dp721
((I236
I255
tp722
(I124
I175
tp723
(I51
I79
tp724
tp725
I01
s(g722
(I69
I123
tp726
g724
tp727
(dp728
((I236
I255
tp729
(I69
I108
tp730
(I51
I79
tp731
tp732
I00
s(g729
(I109
I123
tp733
g731
tp734
I01
sss(g713
g717
g719
tp735
I01
s((I225
I235
tp736
g717
g715
tp737
I01
s(g736
g714
g715
tp738
(dp739
((I225
I235
tp740
(I69
I123
tp741
(I80
I94
tp742
tp743
I01
s(g740
(I124
I175
tp744
g742
tp745
(dp746
((I225
I235
tp747
(I153
I175
tp748
(I80
I94
tp749
tp750
I00
s(g747
(I124
I152
tp751
g749
tp752
I01
sss(g736
g717
g719
tp753
I01
s(g736
g714
g719
tp754
I01
ss(g710
(I19
I68
tp755
g666
tp756
(dp757
((I236
I255
tp758
(I19
I68
tp759
(I80
I94
tp760
tp761
I01
s(g758
g759
(I51
I79
tp762
tp763
I00
s((I225
I235
tp764
g759
g762
tp765
I00
s(g764
g759
g760
tp766
I01
ss(g710
g665
(I0
I50
tp767
tp768
(dp769
((I225
I235
tp770
(I176
I202
tp771
(I34
I50
tp772
tp773
I01
s((I236
I255
tp774
g771
g772
tp775
I01
s(g774
(I69
I175
tp776
g772
tp777
I01
s(g770
g776
(I0
I33
tp778
tp779
I01
s(g770
g776
g772
tp780
I01
s(g774
g776
g778
tp781
I01
s(g774
g771
g778
tp782
I00
s(g770
g771
g778
tp783
(dp784
((I225
I235
tp785
(I176
I202
tp786
(I0
I16
tp787
tp788
I00
s(g785
g786
(I17
I33
tp789
tp790
I01
sss(g710
g755
g767
tp791
(dp792
((I236
I255
tp793
(I19
I68
tp794
(I0
I33
tp795
tp796
I00
s(g793
g794
(I34
I50
tp797
tp798
I01
s((I225
I235
tp799
g794
g795
tp800
(dp801
((I225
I235
tp802
(I19
I68
tp803
(I17
I33
tp804
tp805
I00
s(g802
g803
(I0
I16
tp806
tp807
I01
ss(g799
g794
g797
tp808
I00
ss(g664
g755
g767
tp809
(dp810
((I195
I224
tp811
(I19
I68
tp812
(I0
I33
tp813
tp814
(dp815
((I195
I212
tp816
(I19
I68
tp817
(I17
I33
tp818
tp819
I01
s((I213
I224
tp820
g817
g818
tp821
I01
s(g820
g817
(I0
I16
tp822
tp823
I00
s(g816
g817
g822
tp824
I01
ss(g811
g812
(I34
I50
tp825
tp826
I00
s((I169
I194
tp827
g812
g825
tp828
I01
s(g827
g812
g813
tp829
I01
ss(g664
g755
g666
tp830
(dp831
((I169
I194
tp832
(I19
I68
tp833
(I51
I79
tp834
tp835
I00
s(g832
g833
(I80
I94
tp836
tp837
I01
s((I195
I224
tp838
g833
g834
tp839
I00
s(g838
g833
g836
tp840
I00
ss(g664
g665
g767
tp841
(dp842
((I195
I224
tp843
(I69
I175
tp844
(I0
I33
tp845
tp846
I01
s(g843
g844
(I34
I50
tp847
tp848
(dp849
((I195
I212
tp850
(I124
I175
tp851
(I34
I50
tp852
tp853
(dp854
((I195
I212
tp855
(I124
I152
tp856
(I34
I50
tp857
tp858
I01
s(g855
(I153
I175
tp859
g857
tp860
I00
ss((I213
I224
tp861
g851
g852
tp862
(dp863
((I213
I224
tp864
(I153
I175
tp865
(I34
I50
tp866
tp867
I00
s(g864
(I124
I152
tp868
g866
tp869
I01
ss(g850
(I69
I123
tp870
g852
tp871
I01
s(g861
g870
g852
tp872
I01
ss((I169
I194
tp873
(I176
I202
tp874
g847
tp875
I01
s(g843
g874
g847
tp876
I01
s(g873
g874
g845
tp877
(dp878
((I169
I194
tp879
(I176
I202
tp880
(I17
I33
tp881
tp882
I00
s(g879
g880
(I0
I16
tp883
tp884
I01
ss(g873
g844
g845
tp885
(dp886
((I169
I194
tp887
(I124
I175
tp888
(I0
I16
tp889
tp890
(dp891
((I169
I194
tp892
(I124
I152
tp893
(I0
I16
tp894
tp895
I01
s(g892
(I153
I175
tp896
g894
tp897
I00
ss(g887
(I69
I123
tp898
g889
tp899
I01
s(g887
g888
(I17
I33
tp900
tp901
I00
s(g887
g898
g900
tp902
I01
ss(g843
g874
g845
tp903
(dp904
((I213
I224
tp905
(I176
I202
tp906
(I0
I16
tp907
tp908
I00
s((I195
I212
tp909
g906
(I17
I33
tp910
tp911
I01
s(g905
g906
g910
tp912
I01
s(g909
g906
g907
tp913
I00
ss(g873
g844
g847
tp914
I00
ssssS'cyan'
p915
(dp916
((I0
I220
tp917
(I77
I255
tp918
(I60
I255
tp919
tp920
(dp921
((I0
I100
tp922
(I77
I193
tp923
(I86
I255
tp924
tp925
I01
s(g922
(I194
I255
tp926
g924
tp927
I01
s((I101
I220
tp928
g926
(I60
I85
tp929
tp930
(dp931
((I126
I220
tp932
(I235
I255
tp933
(I60
I85
tp934
tp935
I00
s((I101
I125
tp936
(I194
I234
tp937
g934
tp938
I01
s(g936
g933
g934
tp939
I00
s(g932
g937
g934
tp940
I00
ss(g922
g926
g929
tp941
I00
s(g928
g923
g924
tp942
I00
s(g928
g926
g924
tp943
(dp944
((I101
I125
tp945
(I194
I234
tp946
(I86
I155
tp947
tp948
I01
s((I126
I220
tp949
(I235
I255
tp950
(I156
I255
tp951
tp952
I01
s(g945
g946
g951
tp953
I01
s(g949
g950
g947
tp954
I00
s(g945
g950
g951
tp955
I01
s(g949
g946
g951
tp956
(dp957
((I201
I220
tp958
(I194
I234
tp959
(I156
I255
tp960
tp961
I00
s((I126
I200
tp962
g959
g960
tp963
I01
ss(g945
g950
g947
tp964
(dp965
((I116
I125
tp966
(I235
I255
tp967
(I86
I155
tp968
tp969
I01
s((I101
I115
tp970
g967
g968
tp971
I00
ss(g949
g946
g947
tp972
I00
ss(g928
g923
g929
tp973
I00
s(g922
g923
g929
tp974
I00
sssS'white'
p975
(dp976
((I205
I255
tp977
(I216
I255
tp978
(I113
I255
tp979
tp980
I01
ssS'tan'
p981
(dp982
((I159
I255
tp983
(I133
I254
tp984
(I39
I158
tp985
tp986
(dp987
((I159
I203
tp988
(I231
I254
tp989
(I39
I89
tp990
tp991
I00
s((I204
I255
tp992
g989
(I90
I158
tp993
tp994
(dp995
((I243
I255
tp996
(I231
I254
tp997
(I90
I113
tp998
tp999
I01
s(g996
g997
(I114
I158
tp1000
tp1001
I01
s((I204
I242
tp1002
g997
g998
tp1003
I00
s(g1002
g997
g1000
tp1004
I00
ss(g992
(I133
I230
tp1005
g993
tp1006
(dp1007
((I204
I242
tp1008
(I160
I230
tp1009
(I114
I158
tp1010
tp1011
(dp1012
((I204
I242
tp1013
(I160
I177
tp1014
(I125
I158
tp1015
tp1016
I01
s(g1013
(I178
I230
tp1017
(I114
I124
tp1018
tp1019
I01
s(g1013
g1014
g1018
tp1020
I01
s(g1013
g1017
g1015
tp1021
(dp1022
((I204
I242
tp1023
(I220
I230
tp1024
(I125
I147
tp1025
tp1026
I01
s(g1023
(I178
I219
tp1027
g1025
tp1028
I01
s(g1023
g1024
(I148
I158
tp1029
tp1030
I01
s(g1023
g1027
g1029
tp1031
(dp1032
((I204
I242
tp1033
(I209
I219
tp1034
(I148
I158
tp1035
tp1036
I01
s(g1033
(I178
I208
tp1037
g1035
tp1038
I00
ssss((I243
I255
tp1039
(I133
I159
tp1040
g1010
tp1041
I01
s(g1008
g1040
(I90
I113
tp1042
tp1043
I01
s(g1039
g1009
g1042
tp1044
I01
s(g1039
g1009
g1010
tp1045
I01
s(g1008
g1040
g1010
tp1046
I01
s(g1039
g1040
g1042
tp1047
I01
s(g1008
g1009
g1042
tp1048
I01
ss(g988
g989
g993
tp1049
(dp1050
((I159
I203
tp1051
(I231
I254
tp1052
(I90
I113
tp1053
tp1054
I01
s(g1051
g1052
(I114
I158
tp1055
tp1056
I00
ss(g992
g1005
g990
tp1057
(dp1058
((I204
I242
tp1059
(I160
I230
tp1060
(I39
I61
tp1061
tp1062
(dp1063
((I204
I242
tp1064
(I160
I177
tp1065
(I39
I61
tp1066
tp1067
I01
s(g1064
(I178
I230
tp1068
g1066
tp1069
I00
ss((I243
I255
tp1070
(I133
I159
tp1071
g1061
tp1072
I01
s(g1059
g1060
(I62
I89
tp1073
tp1074
I01
s(g1070
g1071
g1073
tp1075
I01
s(g1070
g1060
g1061
tp1076
I00
s(g1059
g1071
g1061
tp1077
I01
s(g1070
g1060
g1073
tp1078
(dp1079
((I243
I255
tp1080
(I160
I177
tp1081
(I62
I89
tp1082
tp1083
I01
s(g1080
(I178
I230
tp1084
g1082
tp1085
I00
ss(g1059
g1071
g1073
tp1086
I01
ss(g988
g1005
g993
tp1087
(dp1088
((I159
I203
tp1089
(I160
I230
tp1090
(I114
I158
tp1091
tp1092
I00
s(g1089
(I133
I159
tp1093
(I90
I113
tp1094
tp1095
I01
s(g1089
g1090
g1094
tp1096
I01
s(g1089
g1093
g1091
tp1097
I01
ss(g988
g1005
g990
tp1098
(dp1099
((I159
I203
tp1100
(I160
I230
tp1101
(I39
I61
tp1102
tp1103
I00
s(g1100
(I133
I159
tp1104
(I62
I89
tp1105
tp1106
I00
s(g1100
g1104
g1102
tp1107
I00
s(g1100
g1101
g1105
tp1108
I01
ss(g992
g989
g990
tp1109
I00
sssS'red'
p1110
(dp1111
((I83
I255
tp1112
(I0
I128
tp1113
(I0
I144
tp1114
tp1115
(dp1116
((I119
I255
tp1117
(I0
I51
tp1118
(I73
I144
tp1119
tp1120
(dp1121
((I191
I255
tp1122
(I0
I51
tp1123
(I73
I110
tp1124
tp1125
I01
s((I119
I190
tp1126
g1123
g1124
tp1127
(dp1128
((I180
I190
tp1129
(I0
I51
tp1130
(I92
I110
tp1131
tp1132
I01
s(g1129
g1130
(I73
I91
tp1133
tp1134
I01
s((I119
I179
tp1135
g1130
g1131
tp1136
I00
s(g1135
g1130
g1133
tp1137
I00
ss(g1126
g1123
(I111
I144
tp1138
tp1139
(dp1140
((I180
I190
tp1141
(I0
I51
tp1142
(I111
I144
tp1143
tp1144
I01
s((I119
I179
tp1145
g1142
g1143
tp1146
I00
ss(g1122
g1123
g1138
tp1147
I01
ss(g1117
(I52
I128
tp1148
g1119
tp1149
(dp1150
((I191
I255
tp1151
(I52
I109
tp1152
(I111
I144
tp1153
tp1154
I01
s((I119
I190
tp1155
g1152
(I73
I110
tp1156
tp1157
(dp1158
((I119
I179
tp1159
(I52
I109
tp1160
(I73
I91
tp1161
tp1162
I00
s(g1159
g1160
(I92
I110
tp1163
tp1164
I00
s((I180
I190
tp1165
g1160
g1161
tp1166
I01
s(g1165
g1160
g1163
tp1167
I01
ss(g1151
(I110
I128
tp1168
g1153
tp1169
I01
s(g1151
g1152
g1156
tp1170
I01
s(g1155
g1168
g1153
tp1171
I00
s(g1151
g1168
g1156
tp1172
(dp1173
((I191
I255
tp1174
(I110
I128
tp1175
(I73
I91
tp1176
tp1177
I00
s(g1174
g1175
(I92
I110
tp1178
tp1179
I01
ss(g1155
g1168
g1156
tp1180
(dp1181
((I180
I190
tp1182
(I110
I128
tp1183
(I73
I91
tp1184
tp1185
I00
s((I119
I179
tp1186
g1183
(I92
I110
tp1187
tp1188
I00
s(g1186
g1183
g1184
tp1189
I00
s(g1182
g1183
g1187
tp1190
I01
ss(g1155
g1152
g1153
tp1191
I00
ss(g1117
g1118
(I0
I72
tp1192
tp1193
I01
s(g1117
g1148
g1192
tp1194
(dp1195
((I191
I255
tp1196
(I110
I128
tp1197
(I0
I72
tp1198
tp1199
I01
s((I119
I190
tp1200
g1197
g1198
tp1201
I00
s(g1200
(I52
I109
tp1202
g1198
tp1203
(dp1204
((I119
I179
tp1205
(I52
I109
tp1206
(I0
I72
tp1207
tp1208
(dp1209
((I119
I168
tp1210
(I52
I109
tp1211
(I0
I72
tp1212
tp1213
I00
s((I169
I179
tp1214
g1211
g1212
tp1215
I01
ss((I180
I190
tp1216
g1206
g1207
tp1217
I01
ss(g1196
g1202
g1198
tp1218
I01
ss((I83
I118
tp1219
g1148
g1192
tp1220
I00
s(g1219
g1148
g1119
tp1221
I00
s(g1219
g1118
g1119
tp1222
I00
s(g1219
g1118
g1192
tp1223
I01
sssS'black'
p1224
(dp1225
((I0
I60
tp1226
(I0
I58
tp1227
(I0
I58
tp1228
tp1229
I01
ss.